   1               		.file	"HIDReportViewer.c"
   2               	__SP_H__ = 0x3e
   3               	__SP_L__ = 0x3d
   4               	__SREG__ = 0x3f
   5               	__RAMPZ__ = 0x3b
   6               	__tmp_reg__ = 0
   7               	__zero_reg__ = 1
   8               		.text
   9               	.Ltext0:
  10               		.cfi_sections	.debug_frame
  11               		.section	.text.LEDs_SetAllLEDs,"ax",@progbits
  13               	LEDs_SetAllLEDs:
  14               	.LFB32:
  15               		.file 1 "../../LUFA/Drivers/Board/AVR8/USBKEY/LEDs.h"
   1:../../LUFA/Drivers/Board/AVR8/USBKEY/LEDs.h **** /*
   2:../../LUFA/Drivers/Board/AVR8/USBKEY/LEDs.h ****              LUFA Library
   3:../../LUFA/Drivers/Board/AVR8/USBKEY/LEDs.h ****      Copyright (C) Dean Camera, 2011.
   4:../../LUFA/Drivers/Board/AVR8/USBKEY/LEDs.h **** 
   5:../../LUFA/Drivers/Board/AVR8/USBKEY/LEDs.h ****   dean [at] fourwalledcubicle [dot] com
   6:../../LUFA/Drivers/Board/AVR8/USBKEY/LEDs.h ****            www.lufa-lib.org
   7:../../LUFA/Drivers/Board/AVR8/USBKEY/LEDs.h **** */
   8:../../LUFA/Drivers/Board/AVR8/USBKEY/LEDs.h **** 
   9:../../LUFA/Drivers/Board/AVR8/USBKEY/LEDs.h **** /*
  10:../../LUFA/Drivers/Board/AVR8/USBKEY/LEDs.h ****   Copyright 2011  Dean Camera (dean [at] fourwalledcubicle [dot] com)
  11:../../LUFA/Drivers/Board/AVR8/USBKEY/LEDs.h **** 
  12:../../LUFA/Drivers/Board/AVR8/USBKEY/LEDs.h ****   Permission to use, copy, modify, distribute, and sell this
  13:../../LUFA/Drivers/Board/AVR8/USBKEY/LEDs.h ****   software and its documentation for any purpose is hereby granted
  14:../../LUFA/Drivers/Board/AVR8/USBKEY/LEDs.h ****   without fee, provided that the above copyright notice appear in
  15:../../LUFA/Drivers/Board/AVR8/USBKEY/LEDs.h ****   all copies and that both that the copyright notice and this
  16:../../LUFA/Drivers/Board/AVR8/USBKEY/LEDs.h ****   permission notice and warranty disclaimer appear in supporting
  17:../../LUFA/Drivers/Board/AVR8/USBKEY/LEDs.h ****   documentation, and that the name of the author not be used in
  18:../../LUFA/Drivers/Board/AVR8/USBKEY/LEDs.h ****   advertising or publicity pertaining to distribution of the
  19:../../LUFA/Drivers/Board/AVR8/USBKEY/LEDs.h ****   software without specific, written prior permission.
  20:../../LUFA/Drivers/Board/AVR8/USBKEY/LEDs.h **** 
  21:../../LUFA/Drivers/Board/AVR8/USBKEY/LEDs.h ****   The author disclaim all warranties with regard to this
  22:../../LUFA/Drivers/Board/AVR8/USBKEY/LEDs.h ****   software, including all implied warranties of merchantability
  23:../../LUFA/Drivers/Board/AVR8/USBKEY/LEDs.h ****   and fitness.  In no event shall the author be liable for any
  24:../../LUFA/Drivers/Board/AVR8/USBKEY/LEDs.h ****   special, indirect or consequential damages or any damages
  25:../../LUFA/Drivers/Board/AVR8/USBKEY/LEDs.h ****   whatsoever resulting from loss of use, data or profits, whether
  26:../../LUFA/Drivers/Board/AVR8/USBKEY/LEDs.h ****   in an action of contract, negligence or other tortious action,
  27:../../LUFA/Drivers/Board/AVR8/USBKEY/LEDs.h ****   arising out of or in connection with the use or performance of
  28:../../LUFA/Drivers/Board/AVR8/USBKEY/LEDs.h ****   this software.
  29:../../LUFA/Drivers/Board/AVR8/USBKEY/LEDs.h **** */
  30:../../LUFA/Drivers/Board/AVR8/USBKEY/LEDs.h **** 
  31:../../LUFA/Drivers/Board/AVR8/USBKEY/LEDs.h **** /** \file
  32:../../LUFA/Drivers/Board/AVR8/USBKEY/LEDs.h ****  *  \brief Board specific LED driver header for the Atmel USBKEY.
  33:../../LUFA/Drivers/Board/AVR8/USBKEY/LEDs.h ****  *  \copydetails Group_LEDs_USBKEY
  34:../../LUFA/Drivers/Board/AVR8/USBKEY/LEDs.h ****  *
  35:../../LUFA/Drivers/Board/AVR8/USBKEY/LEDs.h ****  *  \note This file should not be included directly. It is automatically included as needed by the 
  36:../../LUFA/Drivers/Board/AVR8/USBKEY/LEDs.h ****  *        dispatch header located in LUFA/Drivers/Board/LEDs.h.
  37:../../LUFA/Drivers/Board/AVR8/USBKEY/LEDs.h ****  */
  38:../../LUFA/Drivers/Board/AVR8/USBKEY/LEDs.h **** 
  39:../../LUFA/Drivers/Board/AVR8/USBKEY/LEDs.h **** /** \ingroup Group_LEDs
  40:../../LUFA/Drivers/Board/AVR8/USBKEY/LEDs.h ****  *  \defgroup Group_LEDs_USBKEY USBKEY
  41:../../LUFA/Drivers/Board/AVR8/USBKEY/LEDs.h ****  *  \brief Board specific LED driver header for the Atmel USBKEY.
  42:../../LUFA/Drivers/Board/AVR8/USBKEY/LEDs.h ****  *
  43:../../LUFA/Drivers/Board/AVR8/USBKEY/LEDs.h ****  *  Board specific LED driver header for the Atmel USBKEY.
  44:../../LUFA/Drivers/Board/AVR8/USBKEY/LEDs.h ****  *
  45:../../LUFA/Drivers/Board/AVR8/USBKEY/LEDs.h ****  *  @{
  46:../../LUFA/Drivers/Board/AVR8/USBKEY/LEDs.h ****  */
  47:../../LUFA/Drivers/Board/AVR8/USBKEY/LEDs.h **** 
  48:../../LUFA/Drivers/Board/AVR8/USBKEY/LEDs.h **** #ifndef __LEDS_USBKEY_H__
  49:../../LUFA/Drivers/Board/AVR8/USBKEY/LEDs.h **** #define __LEDS_USBKEY_H__
  50:../../LUFA/Drivers/Board/AVR8/USBKEY/LEDs.h **** 
  51:../../LUFA/Drivers/Board/AVR8/USBKEY/LEDs.h **** 	/* Includes: */
  52:../../LUFA/Drivers/Board/AVR8/USBKEY/LEDs.h **** 		#include "../../../../Common/Common.h"
  53:../../LUFA/Drivers/Board/AVR8/USBKEY/LEDs.h **** 
  54:../../LUFA/Drivers/Board/AVR8/USBKEY/LEDs.h **** 	/* Enable C linkage for C++ Compilers: */
  55:../../LUFA/Drivers/Board/AVR8/USBKEY/LEDs.h **** 		#if defined(__cplusplus)
  56:../../LUFA/Drivers/Board/AVR8/USBKEY/LEDs.h **** 			extern "C" {
  57:../../LUFA/Drivers/Board/AVR8/USBKEY/LEDs.h **** 		#endif
  58:../../LUFA/Drivers/Board/AVR8/USBKEY/LEDs.h **** 
  59:../../LUFA/Drivers/Board/AVR8/USBKEY/LEDs.h **** 	/* Preprocessor Checks: */
  60:../../LUFA/Drivers/Board/AVR8/USBKEY/LEDs.h **** 		#if !defined(__INCLUDE_FROM_LEDS_H)
  61:../../LUFA/Drivers/Board/AVR8/USBKEY/LEDs.h **** 			#error Do not include this file directly. Include LUFA/Drivers/Board/LEDS.h instead.
  62:../../LUFA/Drivers/Board/AVR8/USBKEY/LEDs.h **** 		#endif
  63:../../LUFA/Drivers/Board/AVR8/USBKEY/LEDs.h **** 
  64:../../LUFA/Drivers/Board/AVR8/USBKEY/LEDs.h **** 	/* Public Interface - May be used in end-application: */
  65:../../LUFA/Drivers/Board/AVR8/USBKEY/LEDs.h **** 		/* Macros: */
  66:../../LUFA/Drivers/Board/AVR8/USBKEY/LEDs.h **** 			/** LED mask for the first LED on the board. */
  67:../../LUFA/Drivers/Board/AVR8/USBKEY/LEDs.h **** 			#define LEDS_LED1        (1 << 4)
  68:../../LUFA/Drivers/Board/AVR8/USBKEY/LEDs.h **** 
  69:../../LUFA/Drivers/Board/AVR8/USBKEY/LEDs.h **** 			/** LED mask for the second LED on the board. */
  70:../../LUFA/Drivers/Board/AVR8/USBKEY/LEDs.h **** 			#define LEDS_LED2        (1 << 5)
  71:../../LUFA/Drivers/Board/AVR8/USBKEY/LEDs.h **** 
  72:../../LUFA/Drivers/Board/AVR8/USBKEY/LEDs.h **** 			/** LED mask for the third LED on the board. */
  73:../../LUFA/Drivers/Board/AVR8/USBKEY/LEDs.h **** 			#define LEDS_LED3        (1 << 7)
  74:../../LUFA/Drivers/Board/AVR8/USBKEY/LEDs.h **** 
  75:../../LUFA/Drivers/Board/AVR8/USBKEY/LEDs.h **** 			/** LED mask for the fourth LED on the board. */
  76:../../LUFA/Drivers/Board/AVR8/USBKEY/LEDs.h **** 			#define LEDS_LED4        (1 << 6)
  77:../../LUFA/Drivers/Board/AVR8/USBKEY/LEDs.h **** 
  78:../../LUFA/Drivers/Board/AVR8/USBKEY/LEDs.h **** 			/** LED mask for all the LEDs on the board. */
  79:../../LUFA/Drivers/Board/AVR8/USBKEY/LEDs.h **** 			#define LEDS_ALL_LEDS    (LEDS_LED1 | LEDS_LED2 | LEDS_LED3 | LEDS_LED4)
  80:../../LUFA/Drivers/Board/AVR8/USBKEY/LEDs.h **** 
  81:../../LUFA/Drivers/Board/AVR8/USBKEY/LEDs.h **** 			/** LED mask for none of the board LEDs. */
  82:../../LUFA/Drivers/Board/AVR8/USBKEY/LEDs.h **** 			#define LEDS_NO_LEDS     0
  83:../../LUFA/Drivers/Board/AVR8/USBKEY/LEDs.h **** 
  84:../../LUFA/Drivers/Board/AVR8/USBKEY/LEDs.h **** 		/* Inline Functions: */
  85:../../LUFA/Drivers/Board/AVR8/USBKEY/LEDs.h **** 		#if !defined(__DOXYGEN__)
  86:../../LUFA/Drivers/Board/AVR8/USBKEY/LEDs.h **** 			static inline void LEDs_Init(void)
  87:../../LUFA/Drivers/Board/AVR8/USBKEY/LEDs.h **** 			{
  88:../../LUFA/Drivers/Board/AVR8/USBKEY/LEDs.h **** 				DDRD  |=  LEDS_ALL_LEDS;
  89:../../LUFA/Drivers/Board/AVR8/USBKEY/LEDs.h **** 				PORTD &= ~LEDS_ALL_LEDS;
  90:../../LUFA/Drivers/Board/AVR8/USBKEY/LEDs.h **** 			}
  91:../../LUFA/Drivers/Board/AVR8/USBKEY/LEDs.h **** 
  92:../../LUFA/Drivers/Board/AVR8/USBKEY/LEDs.h **** 			static inline void LEDs_TurnOnLEDs(const uint8_t LEDMask)
  93:../../LUFA/Drivers/Board/AVR8/USBKEY/LEDs.h **** 			{
  94:../../LUFA/Drivers/Board/AVR8/USBKEY/LEDs.h **** 				PORTD |= LEDMask;
  95:../../LUFA/Drivers/Board/AVR8/USBKEY/LEDs.h **** 			}
  96:../../LUFA/Drivers/Board/AVR8/USBKEY/LEDs.h **** 
  97:../../LUFA/Drivers/Board/AVR8/USBKEY/LEDs.h **** 			static inline void LEDs_TurnOffLEDs(const uint8_t LEDMask)
  98:../../LUFA/Drivers/Board/AVR8/USBKEY/LEDs.h **** 			{
  99:../../LUFA/Drivers/Board/AVR8/USBKEY/LEDs.h **** 				PORTD &= ~LEDMask;
 100:../../LUFA/Drivers/Board/AVR8/USBKEY/LEDs.h **** 			}
 101:../../LUFA/Drivers/Board/AVR8/USBKEY/LEDs.h **** 
 102:../../LUFA/Drivers/Board/AVR8/USBKEY/LEDs.h **** 			static inline void LEDs_SetAllLEDs(const uint8_t LEDMask)
 103:../../LUFA/Drivers/Board/AVR8/USBKEY/LEDs.h **** 			{
  16               		.loc 1 103 0
  17               		.cfi_startproc
  18               	.LVL0:
  19               	/* prologue: function */
  20               	/* frame size = 0 */
  21               	/* stack size = 0 */
  22               	.L__stack_usage = 0
 104:../../LUFA/Drivers/Board/AVR8/USBKEY/LEDs.h **** 				PORTD = ((PORTD & ~LEDS_ALL_LEDS) | LEDMask);
  23               		.loc 1 104 0
  24 0000 9BB1      		in r25,0xb
  25 0002 9F70      		andi r25,lo8(15)
  26 0004 892B      		or r24,r25
  27               	.LVL1:
  28 0006 8BB9      		out 0xb,r24
  29 0008 0895      		ret
  30               		.cfi_endproc
  31               	.LFE32:
  33               		.section	.text.OutputReportSizes,"ax",@progbits
  34               	.global	OutputReportSizes
  36               	OutputReportSizes:
  37               	.LFB149:
  38               		.file 2 "HIDReportViewer.c"
   1:HIDReportViewer.c **** /*
   2:HIDReportViewer.c ****              LUFA Library
   3:HIDReportViewer.c ****      Copyright (C) Dean Camera, 2011.
   4:HIDReportViewer.c **** 
   5:HIDReportViewer.c ****   dean [at] fourwalledcubicle [dot] com
   6:HIDReportViewer.c ****            www.lufa-lib.org
   7:HIDReportViewer.c **** */
   8:HIDReportViewer.c **** 
   9:HIDReportViewer.c **** /*
  10:HIDReportViewer.c ****   Copyright 2011  Dean Camera (dean [at] fourwalledcubicle [dot] com)
  11:HIDReportViewer.c **** 
  12:HIDReportViewer.c ****   Permission to use, copy, modify, distribute, and sell this
  13:HIDReportViewer.c ****   software and its documentation for any purpose is hereby granted
  14:HIDReportViewer.c ****   without fee, provided that the above copyright notice appear in
  15:HIDReportViewer.c ****   all copies and that both that the copyright notice and this
  16:HIDReportViewer.c ****   permission notice and warranty disclaimer appear in supporting
  17:HIDReportViewer.c ****   documentation, and that the name of the author not be used in
  18:HIDReportViewer.c ****   advertising or publicity pertaining to distribution of the
  19:HIDReportViewer.c ****   software without specific, written prior permission.
  20:HIDReportViewer.c **** 
  21:HIDReportViewer.c ****   The author disclaim all warranties with regard to this
  22:HIDReportViewer.c ****   software, including all implied warranties of merchantability
  23:HIDReportViewer.c ****   and fitness.  In no event shall the author be liable for any
  24:HIDReportViewer.c ****   special, indirect or consequential damages or any damages
  25:HIDReportViewer.c ****   whatsoever resulting from loss of use, data or profits, whether
  26:HIDReportViewer.c ****   in an action of contract, negligence or other tortious action,
  27:HIDReportViewer.c ****   arising out of or in connection with the use or performance of
  28:HIDReportViewer.c ****   this software.
  29:HIDReportViewer.c **** */
  30:HIDReportViewer.c **** 
  31:HIDReportViewer.c **** /** \file
  32:HIDReportViewer.c ****  *
  33:HIDReportViewer.c ****  *  Main source file for the HIDReportViewer project. This file contains the main tasks of
  34:HIDReportViewer.c ****  *  the project and is responsible for the initial application hardware configuration.
  35:HIDReportViewer.c ****  */
  36:HIDReportViewer.c ****  
  37:HIDReportViewer.c **** #include "HIDReportViewer.h"
  38:HIDReportViewer.c **** 
  39:HIDReportViewer.c **** /** Processed HID report descriptor items structure, containing information on each HID report elem
  40:HIDReportViewer.c **** static HID_ReportInfo_t HIDReportInfo;
  41:HIDReportViewer.c **** 
  42:HIDReportViewer.c **** /** LUFA HID Class driver interface configuration and state information. This structure is
  43:HIDReportViewer.c ****  *  passed to all HID Class driver functions, so that multiple instances of the same class
  44:HIDReportViewer.c ****  *  within a device can be differentiated from one another.
  45:HIDReportViewer.c ****  */
  46:HIDReportViewer.c **** USB_ClassInfo_HID_Host_t Device_HID_Interface =
  47:HIDReportViewer.c **** 	{
  48:HIDReportViewer.c **** 		.Config =
  49:HIDReportViewer.c **** 			{
  50:HIDReportViewer.c **** 				.DataINPipeNumber       = 1,
  51:HIDReportViewer.c **** 				.DataINPipeDoubleBank   = false,
  52:HIDReportViewer.c **** 
  53:HIDReportViewer.c **** 				.DataOUTPipeNumber      = 2,
  54:HIDReportViewer.c **** 				.DataOUTPipeDoubleBank  = false,
  55:HIDReportViewer.c **** 
  56:HIDReportViewer.c **** 				.HIDInterfaceProtocol   = HID_CSCP_NonBootProtocol,
  57:HIDReportViewer.c **** 
  58:HIDReportViewer.c **** 				.HIDParserData          = &HIDReportInfo
  59:HIDReportViewer.c **** 			},
  60:HIDReportViewer.c **** 	};
  61:HIDReportViewer.c **** 
  62:HIDReportViewer.c **** 
  63:HIDReportViewer.c **** /** Main program entry point. This routine configures the hardware required by the application, the
  64:HIDReportViewer.c ****  *  enters a loop to run the application tasks in sequence.
  65:HIDReportViewer.c ****  */
  66:HIDReportViewer.c **** int main(void)
  67:HIDReportViewer.c **** {
  68:HIDReportViewer.c **** 	SetupHardware();
  69:HIDReportViewer.c **** 
  70:HIDReportViewer.c **** 	puts_P(PSTR(ESC_FG_CYAN "HID Device Report Viewer Running.\r\n" ESC_FG_WHITE));
  71:HIDReportViewer.c **** 
  72:HIDReportViewer.c **** 	LEDs_SetAllLEDs(LEDMASK_USB_NOTREADY);
  73:HIDReportViewer.c **** 	sei();
  74:HIDReportViewer.c **** 
  75:HIDReportViewer.c **** 	for (;;)
  76:HIDReportViewer.c **** 	{
  77:HIDReportViewer.c **** 		RetrieveDeviceData();
  78:HIDReportViewer.c **** 		
  79:HIDReportViewer.c **** 		HID_Host_USBTask(&Device_HID_Interface);
  80:HIDReportViewer.c **** 		USB_USBTask();
  81:HIDReportViewer.c **** 	}
  82:HIDReportViewer.c **** }
  83:HIDReportViewer.c **** 
  84:HIDReportViewer.c **** /** Task to retrieve the HID device information from an attached device, and output
  85:HIDReportViewer.c ****  *  the relevant data to the serial port for analysis.
  86:HIDReportViewer.c ****  */
  87:HIDReportViewer.c **** void RetrieveDeviceData(void)
  88:HIDReportViewer.c **** {
  89:HIDReportViewer.c **** 	if (USB_CurrentMode != USB_MODE_Host)
  90:HIDReportViewer.c **** 	  return;
  91:HIDReportViewer.c **** 	
  92:HIDReportViewer.c **** 	LEDs_SetAllLEDs(LEDMASK_USB_BUSY);
  93:HIDReportViewer.c **** 	
  94:HIDReportViewer.c **** 	OutputReportSizes();
  95:HIDReportViewer.c **** 	OutputParsedReportItems();
  96:HIDReportViewer.c **** 	
  97:HIDReportViewer.c **** 	LEDs_SetAllLEDs(LEDMASK_USB_READY);
  98:HIDReportViewer.c **** 	USB_Host_SetDeviceConfiguration(0);
  99:HIDReportViewer.c **** }
 100:HIDReportViewer.c **** 
 101:HIDReportViewer.c **** /** Prints a summary of the device's HID report sizes from the HID parser output to the serial port
 102:HIDReportViewer.c ****  *  for display to the user.
 103:HIDReportViewer.c ****  */
 104:HIDReportViewer.c **** void OutputReportSizes(void)
 105:HIDReportViewer.c **** {
  39               		.loc 2 105 0
  40               		.cfi_startproc
  41 0000 AF92      		push r10
  42               	.LCFI0:
  43               		.cfi_def_cfa_offset 3
  44               		.cfi_offset 10, -2
  45 0002 BF92      		push r11
  46               	.LCFI1:
  47               		.cfi_def_cfa_offset 4
  48               		.cfi_offset 11, -3
  49 0004 CF92      		push r12
  50               	.LCFI2:
  51               		.cfi_def_cfa_offset 5
  52               		.cfi_offset 12, -4
  53 0006 DF92      		push r13
  54               	.LCFI3:
  55               		.cfi_def_cfa_offset 6
  56               		.cfi_offset 13, -5
  57 0008 EF92      		push r14
  58               	.LCFI4:
  59               		.cfi_def_cfa_offset 7
  60               		.cfi_offset 14, -6
  61 000a FF92      		push r15
  62               	.LCFI5:
  63               		.cfi_def_cfa_offset 8
  64               		.cfi_offset 15, -7
  65 000c 0F93      		push r16
  66               	.LCFI6:
  67               		.cfi_def_cfa_offset 9
  68               		.cfi_offset 16, -8
  69 000e 1F93      		push r17
  70               	.LCFI7:
  71               		.cfi_def_cfa_offset 10
  72               		.cfi_offset 17, -9
  73 0010 CF93      		push r28
  74               	.LCFI8:
  75               		.cfi_def_cfa_offset 11
  76               		.cfi_offset 28, -10
  77 0012 DF93      		push r29
  78               	.LCFI9:
  79               		.cfi_def_cfa_offset 12
  80               		.cfi_offset 29, -11
  81               	/* prologue: function */
  82               	/* frame size = 0 */
  83               	/* stack size = 10 */
  84               	.L__stack_usage = 10
 106:HIDReportViewer.c **** 	printf_P(PSTR("\r\n\r\nTotal Device Reports: %" PRId8 "\r\n"), HIDReportInfo.TotalDeviceReports);
  85               		.loc 2 106 0
  86 0014 8091 0000 		lds r24,HIDReportInfo+911
  87 0018 1F92      		push __zero_reg__
  88               	.LCFI10:
  89               		.cfi_def_cfa_offset 13
  90 001a 8F93      		push r24
  91               	.LCFI11:
  92               		.cfi_def_cfa_offset 14
  93 001c 80E0      		ldi r24,lo8(__c.4486)
  94 001e 90E0      		ldi r25,hi8(__c.4486)
  95 0020 9F93      		push r25
  96               	.LCFI12:
  97               		.cfi_def_cfa_offset 15
  98 0022 8F93      		push r24
  99               	.LCFI13:
 100               		.cfi_def_cfa_offset 16
 101 0024 0E94 0000 		call printf_P
 102               	.LBB10:
 107:HIDReportViewer.c **** 
 108:HIDReportViewer.c **** 	for (uint8_t ReportIndex = 0; ReportIndex < HIDReportInfo.TotalDeviceReports; ReportIndex++)
 103               		.loc 2 108 0
 104 0028 0F90      		pop __tmp_reg__
 105 002a 0F90      		pop __tmp_reg__
 106 002c 0F90      		pop __tmp_reg__
 107 002e 0F90      		pop __tmp_reg__
 108               	.LCFI14:
 109               		.cfi_def_cfa_offset 12
 110 0030 C0E0      		ldi r28,0
 111               	.LBB11:
 109:HIDReportViewer.c **** 	{
 110:HIDReportViewer.c **** 		const HID_ReportSizeInfo_t* CurrReportIDInfo = &HIDReportInfo.ReportIDSizes[ReportIndex];
 111:HIDReportViewer.c **** 
 112:HIDReportViewer.c **** 		uint8_t ReportSizeInBits      = CurrReportIDInfo->ReportSizeBits[HID_REPORT_ITEM_In];
 112               		.loc 2 112 0
 113 0032 D7E0      		ldi r29,lo8(7)
 113:HIDReportViewer.c **** 		uint8_t ReportSizeOutBits     = CurrReportIDInfo->ReportSizeBits[HID_REPORT_ITEM_Out];
 114:HIDReportViewer.c **** 		uint8_t ReportSizeFeatureBits = CurrReportIDInfo->ReportSizeBits[HID_REPORT_ITEM_Feature];
 115:HIDReportViewer.c **** 
 116:HIDReportViewer.c **** 		/* Print out the byte sizes of each report within the device */
 117:HIDReportViewer.c **** 		printf_P(PSTR("  + Report ID 0x%02" PRIX8 "\r\n"
 114               		.loc 2 117 0
 115 0034 80E0      		ldi r24,lo8(__c.4493)
 116 0036 A82E      		mov r10,r24
 117 0038 80E0      		ldi r24,hi8(__c.4493)
 118 003a B82E      		mov r11,r24
 119               	.L3:
 120               	.LBE11:
 108:HIDReportViewer.c **** 	{
 121               		.loc 2 108 0 discriminator 1
 122 003c 8091 0000 		lds r24,HIDReportInfo+911
 123 0040 C817      		cp r28,r24
 124 0042 00F0      		brlo .+2
 125 0044 00C0      		rjmp .L9
 126               	.LBB12:
 110:HIDReportViewer.c **** 
 127               		.loc 2 110 0 discriminator 3
 128 0046 0C2F      		mov r16,r28
 129 0048 10E0      		ldi r17,0
 112:HIDReportViewer.c **** 		uint8_t ReportSizeOutBits     = CurrReportIDInfo->ReportSizeBits[HID_REPORT_ITEM_Out];
 130               		.loc 2 112 0 discriminator 3
 131 004a D09F      		mul r29,r16
 132 004c C001      		movw r24,r0
 133 004e D19F      		mul r29,r17
 134 0050 900D      		add r25,r0
 135 0052 1124      		clr __zero_reg__
 136 0054 8050      		subi r24,lo8(-(HIDReportInfo))
 137 0056 9040      		sbci r25,hi8(-(HIDReportInfo))
 138 0058 FC01      		movw r30,r24
 139 005a EF56      		subi r30,111
 140 005c FC4F      		sbci r31,-4
 141 005e 4081      		ld r20,Z
 142 0060 5181      		ldd r21,Z+1
 113:HIDReportViewer.c **** 		uint8_t ReportSizeFeatureBits = CurrReportIDInfo->ReportSizeBits[HID_REPORT_ITEM_Feature];
 143               		.loc 2 113 0 discriminator 3
 144 0062 3296      		adiw r30,2
 145 0064 6081      		ld r22,Z
 146 0066 7181      		ldd r23,Z+1
 114:HIDReportViewer.c **** 
 147               		.loc 2 114 0 discriminator 3
 148 0068 3296      		adiw r30,2
 149 006a 2081      		ld r18,Z
 150 006c 3181      		ldd r19,Z+1
 118:HIDReportViewer.c **** 					  "    - Input Data:   %" PRId8 " bits (%" PRId8 " bytes)\r\n"
 119:HIDReportViewer.c **** 					  "    - Output Data:  %" PRId8 " bits (%" PRId8 " bytes)\r\n"
 120:HIDReportViewer.c **** 					  "    - Feature Data: %" PRId8 " bits (%" PRId8 " bytes)\r\n"),
 121:HIDReportViewer.c **** 				 CurrReportIDInfo->ReportID,
 122:HIDReportViewer.c **** 				 ReportSizeInBits,
 123:HIDReportViewer.c **** 				 ((ReportSizeInBits      >> 3) + ((ReportSizeInBits      & 0x07) != 0)),
 124:HIDReportViewer.c **** 				 ReportSizeOutBits,
 125:HIDReportViewer.c **** 				 ((ReportSizeOutBits     >> 3) + ((ReportSizeOutBits     & 0x07) != 0)),
 126:HIDReportViewer.c **** 				 ReportSizeFeatureBits,
 127:HIDReportViewer.c **** 				 ((ReportSizeFeatureBits >> 3) + ((ReportSizeFeatureBits & 0x07) != 0)));
 151               		.loc 2 127 0 discriminator 3
 152 006e 7901      		movw r14,r18
 153 0070 FF24      		clr r15
 125:HIDReportViewer.c **** 				 ReportSizeFeatureBits,
 154               		.loc 2 125 0 discriminator 3
 155 0072 DB01      		movw r26,r22
 156 0074 BB27      		clr r27
 123:HIDReportViewer.c **** 				 ReportSizeOutBits,
 157               		.loc 2 123 0 discriminator 3
 158 0076 FA01      		movw r30,r20
 159 0078 FF27      		clr r31
 117:HIDReportViewer.c **** 					  "    - Input Data:   %" PRId8 " bits (%" PRId8 " bytes)\r\n"
 160               		.loc 2 117 0 discriminator 3
 161 007a 6901      		movw r12,r18
 162 007c 87E0      		ldi r24,7
 163 007e C822      		and r12,r24
 164 0080 DD24      		clr r13
 165 0082 81E0      		ldi r24,lo8(1)
 166 0084 90E0      		ldi r25,0
 167 0086 CD28      		or r12,r13
 168 0088 01F4      		brne .L4
 169 008a 80E0      		ldi r24,0
 170 008c 90E0      		ldi r25,0
 171               	.L4:
 172 008e 2695      		lsr r18
 173 0090 2695      		lsr r18
 174 0092 2695      		lsr r18
 175 0094 820F      		add r24,r18
 176 0096 911D      		adc r25,__zero_reg__
 177 0098 9F93      		push r25
 178               	.LCFI15:
 179               		.cfi_def_cfa_offset 13
 180 009a 8F93      		push r24
 181               	.LCFI16:
 182               		.cfi_def_cfa_offset 14
 183 009c FF92      		push r15
 184               	.LCFI17:
 185               		.cfi_def_cfa_offset 15
 186 009e EF92      		push r14
 187               	.LCFI18:
 188               		.cfi_def_cfa_offset 16
 189 00a0 81E0      		ldi r24,lo8(1)
 190 00a2 90E0      		ldi r25,0
 191 00a4 9D01      		movw r18,r26
 192 00a6 2770      		andi r18,7
 193 00a8 3327      		clr r19
 194 00aa 232B      		or r18,r19
 195 00ac 01F4      		brne .L5
 196 00ae 80E0      		ldi r24,0
 197 00b0 90E0      		ldi r25,0
 198               	.L5:
 199 00b2 6695      		lsr r22
 200 00b4 6695      		lsr r22
 201 00b6 6695      		lsr r22
 202 00b8 860F      		add r24,r22
 203 00ba 911D      		adc r25,__zero_reg__
 204 00bc 9F93      		push r25
 205               	.LCFI19:
 206               		.cfi_def_cfa_offset 17
 207 00be 8F93      		push r24
 208               	.LCFI20:
 209               		.cfi_def_cfa_offset 18
 210 00c0 BF93      		push r27
 211               	.LCFI21:
 212               		.cfi_def_cfa_offset 19
 213 00c2 AF93      		push r26
 214               	.LCFI22:
 215               		.cfi_def_cfa_offset 20
 216 00c4 81E0      		ldi r24,lo8(1)
 217 00c6 90E0      		ldi r25,0
 218 00c8 9F01      		movw r18,r30
 219 00ca 2770      		andi r18,7
 220 00cc 3327      		clr r19
 221 00ce 232B      		or r18,r19
 222 00d0 01F4      		brne .L6
 223 00d2 80E0      		ldi r24,0
 224 00d4 90E0      		ldi r25,0
 225               	.L6:
 226 00d6 4695      		lsr r20
 227 00d8 4695      		lsr r20
 228 00da 4695      		lsr r20
 229 00dc 840F      		add r24,r20
 230 00de 911D      		adc r25,__zero_reg__
 231 00e0 9F93      		push r25
 232               	.LCFI23:
 233               		.cfi_def_cfa_offset 21
 234 00e2 8F93      		push r24
 235               	.LCFI24:
 236               		.cfi_def_cfa_offset 22
 237 00e4 FF93      		push r31
 238               	.LCFI25:
 239               		.cfi_def_cfa_offset 23
 240 00e6 EF93      		push r30
 241               	.LCFI26:
 242               		.cfi_def_cfa_offset 24
 121:HIDReportViewer.c **** 				 ReportSizeInBits,
 243               		.loc 2 121 0 discriminator 3
 244 00e8 D09F      		mul r29,r16
 245 00ea F001      		movw r30,r0
 246 00ec D19F      		mul r29,r17
 247 00ee F00D      		add r31,r0
 248 00f0 1124      		clr __zero_reg__
 249 00f2 E050      		subi r30,lo8(-(HIDReportInfo+912))
 250 00f4 F040      		sbci r31,hi8(-(HIDReportInfo+912))
 117:HIDReportViewer.c **** 					  "    - Input Data:   %" PRId8 " bits (%" PRId8 " bytes)\r\n"
 251               		.loc 2 117 0 discriminator 3
 252 00f6 8081      		ld r24,Z
 253 00f8 1F92      		push __zero_reg__
 254               	.LCFI27:
 255               		.cfi_def_cfa_offset 25
 256 00fa 8F93      		push r24
 257               	.LCFI28:
 258               		.cfi_def_cfa_offset 26
 259 00fc BF92      		push r11
 260               	.LCFI29:
 261               		.cfi_def_cfa_offset 27
 262 00fe AF92      		push r10
 263               	.LCFI30:
 264               		.cfi_def_cfa_offset 28
 265 0100 0E94 0000 		call printf_P
 266               	.LBE12:
 108:HIDReportViewer.c **** 	{
 267               		.loc 2 108 0 discriminator 3
 268 0104 CF5F      		subi r28,lo8(-(1))
 269 0106 8DB7      		in r24,__SP_L__
 270 0108 9EB7      		in r25,__SP_H__
 271 010a 4096      		adiw r24,16
 272 010c 0FB6      		in __tmp_reg__,__SREG__
 273 010e F894      		cli
 274 0110 9EBF      		out __SP_H__,r25
 275 0112 0FBE      		out __SREG__,__tmp_reg__
 276 0114 8DBF      		out __SP_L__,r24
 277               	.LCFI31:
 278               		.cfi_def_cfa_offset 12
 279 0116 00C0      		rjmp .L3
 280               	.L9:
 281               	/* epilogue start */
 282               	.LBE10:
 128:HIDReportViewer.c **** 	}
 129:HIDReportViewer.c **** }
 283               		.loc 2 129 0
 284 0118 DF91      		pop r29
 285 011a CF91      		pop r28
 286 011c 1F91      		pop r17
 287 011e 0F91      		pop r16
 288 0120 FF90      		pop r15
 289 0122 EF90      		pop r14
 290 0124 DF90      		pop r13
 291 0126 CF90      		pop r12
 292 0128 BF90      		pop r11
 293 012a AF90      		pop r10
 294 012c 0895      		ret
 295               		.cfi_endproc
 296               	.LFE149:
 298               		.section	.text.OutputCollectionPath,"ax",@progbits
 299               	.global	OutputCollectionPath
 301               	OutputCollectionPath:
 302               	.LFB151:
 130:HIDReportViewer.c **** 
 131:HIDReportViewer.c **** /** Prints a summary of the device's parsed and stored report items along with their attributes
 132:HIDReportViewer.c ****  *  to the serial port for display to the user.
 133:HIDReportViewer.c ****  */
 134:HIDReportViewer.c **** void OutputParsedReportItems(void)
 135:HIDReportViewer.c **** {
 136:HIDReportViewer.c **** 	printf_P(PSTR("\r\nReport Items (%" PRId8 " in Table):\r\n"), HIDReportInfo.TotalReportItems);
 137:HIDReportViewer.c **** 
 138:HIDReportViewer.c **** 	for (uint8_t ItemIndex = 0; ItemIndex < HIDReportInfo.TotalReportItems; ItemIndex++)
 139:HIDReportViewer.c **** 	{
 140:HIDReportViewer.c **** 		const HID_ReportItem_t* RItem = &HIDReportInfo.ReportItems[ItemIndex];
 141:HIDReportViewer.c **** 
 142:HIDReportViewer.c **** 		printf_P(PSTR("  + Item %" PRId8 ":\r\n"
 143:HIDReportViewer.c **** 					  "    - Report ID:          0x%02" PRIX8  "\r\n"
 144:HIDReportViewer.c **** 					  "    - Data Direction:     %s\r\n"
 145:HIDReportViewer.c **** 					  "    - Item Flags:         0x%02" PRIX8  "\r\n"
 146:HIDReportViewer.c **** 					  "    - Item Offset (Bits): 0x%02" PRIX8  "\r\n"
 147:HIDReportViewer.c **** 					  "    - Item Size (Bits):   0x%02" PRIX8  "\r\n"
 148:HIDReportViewer.c **** 					  "    - Usage Page:         0x%04" PRIX16 "\r\n"
 149:HIDReportViewer.c **** 					  "    - Usage:              0x%04" PRIX16 "\r\n"
 150:HIDReportViewer.c **** 					  "    - Unit Type:          0x%08" PRIX32 "\r\n"
 151:HIDReportViewer.c **** 					  "    - Unit Exponent:      0x%02" PRIX8  "\r\n"
 152:HIDReportViewer.c **** 					  "    - Logical Minimum:    0x%08" PRIX32 "\r\n"
 153:HIDReportViewer.c **** 					  "    - Logical Maximum:    0x%08" PRIX32 "\r\n"
 154:HIDReportViewer.c **** 					  "    - Physical Minimum:   0x%08" PRIX32 "\r\n"
 155:HIDReportViewer.c **** 					  "    - Physical Maximum:   0x%08" PRIX32 "\r\n"
 156:HIDReportViewer.c **** 					  "    - Collection Path:\r\n"),
 157:HIDReportViewer.c **** 				 ItemIndex,
 158:HIDReportViewer.c **** 				 RItem->ReportID,
 159:HIDReportViewer.c **** 				 ((RItem->ItemType == HID_REPORT_ITEM_In) ? "IN" : ((RItem->ItemType == HID_REPORT_ITEM_Out) ? 
 160:HIDReportViewer.c **** 				 RItem->ItemFlags,
 161:HIDReportViewer.c **** 				 RItem->BitOffset,
 162:HIDReportViewer.c **** 				 RItem->Attributes.BitSize,
 163:HIDReportViewer.c **** 				 RItem->Attributes.Usage.Page,
 164:HIDReportViewer.c **** 				 RItem->Attributes.Usage.Usage,
 165:HIDReportViewer.c **** 				 RItem->Attributes.Unit.Type,
 166:HIDReportViewer.c **** 				 RItem->Attributes.Unit.Exponent,
 167:HIDReportViewer.c **** 				 RItem->Attributes.Logical.Minimum,
 168:HIDReportViewer.c **** 				 RItem->Attributes.Logical.Maximum,
 169:HIDReportViewer.c **** 				 RItem->Attributes.Physical.Minimum,
 170:HIDReportViewer.c **** 				 RItem->Attributes.Physical.Maximum);
 171:HIDReportViewer.c **** 		
 172:HIDReportViewer.c **** 		OutputCollectionPath(RItem->CollectionPath);
 173:HIDReportViewer.c **** 	}
 174:HIDReportViewer.c **** }
 175:HIDReportViewer.c **** 
 176:HIDReportViewer.c **** /** Prints the HID Collection path (along with each node's attributes) to the serial port
 177:HIDReportViewer.c ****  *  for display to the user, from the given starting node to the root node.
 178:HIDReportViewer.c ****  *
 179:HIDReportViewer.c ****  *  \param[in] CollectionPath  Starting HID Collection node to print
 180:HIDReportViewer.c ****  */
 181:HIDReportViewer.c **** void OutputCollectionPath(const HID_CollectionPath_t* const CollectionPath)
 182:HIDReportViewer.c **** {
 303               		.loc 2 182 0
 304               		.cfi_startproc
 305 0000 0F93      		push r16
 306               	.LCFI32:
 307               		.cfi_def_cfa_offset 3
 308               		.cfi_offset 16, -2
 309 0002 1F93      		push r17
 310               	.LCFI33:
 311               		.cfi_def_cfa_offset 4
 312               		.cfi_offset 17, -3
 313 0004 CF93      		push r28
 314               	.LCFI34:
 315               		.cfi_def_cfa_offset 5
 316               		.cfi_offset 28, -4
 317 0006 DF93      		push r29
 318               	.LCFI35:
 319               		.cfi_def_cfa_offset 6
 320               		.cfi_offset 29, -5
 321               	/* prologue: function */
 322               	/* frame size = 0 */
 323               	/* stack size = 4 */
 324               	.L__stack_usage = 4
 325 0008 EC01      		movw r28,r24
 183:HIDReportViewer.c **** 	const HID_CollectionPath_t* CurrentNode = CollectionPath;
 184:HIDReportViewer.c **** 
 185:HIDReportViewer.c **** 	while (CurrentNode != NULL)
 186:HIDReportViewer.c **** 	{
 187:HIDReportViewer.c **** 		printf_P(PSTR("      |\r\n"
 326               		.loc 2 187 0
 327 000a 00E0      		ldi r16,lo8(__c.4514)
 328 000c 10E0      		ldi r17,hi8(__c.4514)
 329               	.L11:
 185:HIDReportViewer.c **** 	{
 330               		.loc 2 185 0
 331 000e 2097      		sbiw r28,0
 332 0010 01F0      		breq .L13
 333               		.loc 2 187 0
 334 0012 8C81      		ldd r24,Y+4
 335 0014 8F93      		push r24
 336               	.LCFI36:
 337               		.cfi_def_cfa_offset 7
 338 0016 8B81      		ldd r24,Y+3
 339 0018 8F93      		push r24
 340               	.LCFI37:
 341               		.cfi_def_cfa_offset 8
 342 001a 8A81      		ldd r24,Y+2
 343 001c 8F93      		push r24
 344               	.LCFI38:
 345               		.cfi_def_cfa_offset 9
 346 001e 8981      		ldd r24,Y+1
 347 0020 8F93      		push r24
 348               	.LCFI39:
 349               		.cfi_def_cfa_offset 10
 350 0022 8881      		ld r24,Y
 351 0024 1F92      		push __zero_reg__
 352               	.LCFI40:
 353               		.cfi_def_cfa_offset 11
 354 0026 8F93      		push r24
 355               	.LCFI41:
 356               		.cfi_def_cfa_offset 12
 357 0028 1F93      		push r17
 358               	.LCFI42:
 359               		.cfi_def_cfa_offset 13
 360 002a 0F93      		push r16
 361               	.LCFI43:
 362               		.cfi_def_cfa_offset 14
 363 002c 0E94 0000 		call printf_P
 188:HIDReportViewer.c **** 					  "      - Type:  0x%02" PRIX8 "\r\n"
 189:HIDReportViewer.c **** 					  "      - Usage: 0x%02" PRIX8 "\r\n"),
 190:HIDReportViewer.c **** 					  CurrentNode->Type, CurrentNode->Usage);
 191:HIDReportViewer.c **** 		
 192:HIDReportViewer.c **** 		CurrentNode = CurrentNode->Parent;
 364               		.loc 2 192 0
 365 0030 0D80      		ldd __tmp_reg__,Y+5
 366 0032 DE81      		ldd r29,Y+6
 367 0034 C02D      		mov r28,__tmp_reg__
 368 0036 8DB7      		in r24,__SP_L__
 369 0038 9EB7      		in r25,__SP_H__
 370 003a 0896      		adiw r24,8
 371 003c 0FB6      		in __tmp_reg__,__SREG__
 372 003e F894      		cli
 373 0040 9EBF      		out __SP_H__,r25
 374 0042 0FBE      		out __SREG__,__tmp_reg__
 375 0044 8DBF      		out __SP_L__,r24
 376               	.LCFI44:
 377               		.cfi_def_cfa_offset 6
 378 0046 00C0      		rjmp .L11
 379               	.L13:
 193:HIDReportViewer.c **** 	}
 194:HIDReportViewer.c **** 	
 195:HIDReportViewer.c **** 	printf_P(PSTR("      |\r\n"
 380               		.loc 2 195 0
 381 0048 80E0      		ldi r24,lo8(__c.4519)
 382 004a 90E0      		ldi r25,hi8(__c.4519)
 383 004c 9F93      		push r25
 384               	.LCFI45:
 385               		.cfi_def_cfa_offset 7
 386 004e 8F93      		push r24
 387               	.LCFI46:
 388               		.cfi_def_cfa_offset 8
 389 0050 0E94 0000 		call printf_P
 196:HIDReportViewer.c **** 				  "      END\r\n"));
 197:HIDReportViewer.c **** }
 390               		.loc 2 197 0
 391 0054 0F90      		pop __tmp_reg__
 392 0056 0F90      		pop __tmp_reg__
 393               	.LCFI47:
 394               		.cfi_def_cfa_offset 6
 395               	/* epilogue start */
 396 0058 DF91      		pop r29
 397 005a CF91      		pop r28
 398 005c 1F91      		pop r17
 399 005e 0F91      		pop r16
 400 0060 0895      		ret
 401               		.cfi_endproc
 402               	.LFE151:
 404               		.section	.rodata.str1.1,"aMS",@progbits,1
 405               	.LC0:
 406 0000 4645 4154 		.string	"FEATURE"
 406      5552 4500 
 407               	.LC1:
 408 0008 494E 00   		.string	"IN"
 409               	.LC2:
 410 000b 4F55 5400 		.string	"OUT"
 411               		.section	.text.OutputParsedReportItems,"ax",@progbits
 412               	.global	OutputParsedReportItems
 414               	OutputParsedReportItems:
 415               	.LFB150:
 135:HIDReportViewer.c **** 	printf_P(PSTR("\r\nReport Items (%" PRId8 " in Table):\r\n"), HIDReportInfo.TotalReportItems);
 416               		.loc 2 135 0
 417               		.cfi_startproc
 418 0000 2F92      		push r2
 419               	.LCFI48:
 420               		.cfi_def_cfa_offset 3
 421               		.cfi_offset 2, -2
 422 0002 3F92      		push r3
 423               	.LCFI49:
 424               		.cfi_def_cfa_offset 4
 425               		.cfi_offset 3, -3
 426 0004 4F92      		push r4
 427               	.LCFI50:
 428               		.cfi_def_cfa_offset 5
 429               		.cfi_offset 4, -4
 430 0006 5F92      		push r5
 431               	.LCFI51:
 432               		.cfi_def_cfa_offset 6
 433               		.cfi_offset 5, -5
 434 0008 6F92      		push r6
 435               	.LCFI52:
 436               		.cfi_def_cfa_offset 7
 437               		.cfi_offset 6, -6
 438 000a 7F92      		push r7
 439               	.LCFI53:
 440               		.cfi_def_cfa_offset 8
 441               		.cfi_offset 7, -7
 442 000c 8F92      		push r8
 443               	.LCFI54:
 444               		.cfi_def_cfa_offset 9
 445               		.cfi_offset 8, -8
 446 000e 9F92      		push r9
 447               	.LCFI55:
 448               		.cfi_def_cfa_offset 10
 449               		.cfi_offset 9, -9
 450 0010 AF92      		push r10
 451               	.LCFI56:
 452               		.cfi_def_cfa_offset 11
 453               		.cfi_offset 10, -10
 454 0012 BF92      		push r11
 455               	.LCFI57:
 456               		.cfi_def_cfa_offset 12
 457               		.cfi_offset 11, -11
 458 0014 CF92      		push r12
 459               	.LCFI58:
 460               		.cfi_def_cfa_offset 13
 461               		.cfi_offset 12, -12
 462 0016 DF92      		push r13
 463               	.LCFI59:
 464               		.cfi_def_cfa_offset 14
 465               		.cfi_offset 13, -13
 466 0018 EF92      		push r14
 467               	.LCFI60:
 468               		.cfi_def_cfa_offset 15
 469               		.cfi_offset 14, -14
 470 001a FF92      		push r15
 471               	.LCFI61:
 472               		.cfi_def_cfa_offset 16
 473               		.cfi_offset 15, -15
 474 001c 0F93      		push r16
 475               	.LCFI62:
 476               		.cfi_def_cfa_offset 17
 477               		.cfi_offset 16, -16
 478 001e 1F93      		push r17
 479               	.LCFI63:
 480               		.cfi_def_cfa_offset 18
 481               		.cfi_offset 17, -17
 482 0020 CF93      		push r28
 483               	.LCFI64:
 484               		.cfi_def_cfa_offset 19
 485               		.cfi_offset 28, -18
 486 0022 DF93      		push r29
 487               	.LCFI65:
 488               		.cfi_def_cfa_offset 20
 489               		.cfi_offset 29, -19
 490 0024 CDB7      		in r28,__SP_L__
 491 0026 DEB7      		in r29,__SP_H__
 492               	.LCFI66:
 493               		.cfi_def_cfa_register 28
 494 0028 2997      		sbiw r28,9
 495               	.LCFI67:
 496               		.cfi_def_cfa_offset 29
 497 002a 0FB6      		in __tmp_reg__,__SREG__
 498 002c F894      		cli
 499 002e DEBF      		out __SP_H__,r29
 500 0030 0FBE      		out __SREG__,__tmp_reg__
 501 0032 CDBF      		out __SP_L__,r28
 502               	/* prologue: function */
 503               	/* frame size = 9 */
 504               	/* stack size = 27 */
 505               	.L__stack_usage = 27
 136:HIDReportViewer.c **** 
 506               		.loc 2 136 0
 507 0034 8091 0000 		lds r24,HIDReportInfo
 508 0038 1F92      		push __zero_reg__
 509 003a 8F93      		push r24
 510 003c 80E0      		ldi r24,lo8(__c.4501)
 511 003e 90E0      		ldi r25,hi8(__c.4501)
 512 0040 9F93      		push r25
 513 0042 8F93      		push r24
 514 0044 0E94 0000 		call printf_P
 515               	.LVL2:
 516               	.LBB13:
 138:HIDReportViewer.c **** 	{
 517               		.loc 2 138 0
 518 0048 0F90      		pop __tmp_reg__
 519 004a 0F90      		pop __tmp_reg__
 520 004c 0F90      		pop __tmp_reg__
 521 004e 0F90      		pop __tmp_reg__
 522 0050 1986      		std Y+9,__zero_reg__
 523               	.LVL3:
 524               	.L15:
 138:HIDReportViewer.c **** 	{
 525               		.loc 2 138 0 is_stmt 0 discriminator 1
 526 0052 8091 0000 		lds r24,HIDReportInfo
 527 0056 2985      		ldd r18,Y+9
 528 0058 2817      		cp r18,r24
 529 005a 00F0      		brlo .+2
 530 005c 00C0      		rjmp .L20
 531               	.LBB14:
 140:HIDReportViewer.c **** 
 532               		.loc 2 140 0 is_stmt 1
 533 005e 2985      		ldd r18,Y+9
 534 0060 822F      		mov r24,r18
 535 0062 90E0      		ldi r25,0
 536               	.LVL4:
 142:HIDReportViewer.c **** 					  "    - Report ID:          0x%02" PRIX8  "\r\n"
 537               		.loc 2 142 0
 538 0064 2AE2      		ldi r18,lo8(42)
 539 0066 289F      		mul r18,r24
 540 0068 F001      		movw r30,r0
 541 006a 299F      		mul r18,r25
 542 006c F00D      		add r31,r0
 543 006e 1124      		clr __zero_reg__
 544 0070 E050      		subi r30,lo8(-(HIDReportInfo))
 545 0072 F040      		sbci r31,hi8(-(HIDReportInfo))
 546 0074 DF01      		movw r26,r30
 547 0076 5F96      		adiw r26,31
 548 0078 978C      		ldd r9,Z+31
 549 007a 1196      		adiw r26,1
 550 007c 8C90      		ld r8,X
 551 007e 1197      		sbiw r26,1
 552 0080 1296      		adiw r26,2
 553 0082 7C90      		ld r7,X
 554 0084 1297      		sbiw r26,2
 555 0086 1396      		adiw r26,3
 556 0088 6C90      		ld r6,X
 557 008a 1397      		sbiw r26,3
 558 008c 1497      		sbiw r26,4
 559 008e D38C      		ldd r13,Z+27
 560 0090 1196      		adiw r26,1
 561 0092 CC90      		ld r12,X
 562 0094 1197      		sbiw r26,1
 563 0096 1296      		adiw r26,2
 564 0098 BC90      		ld r11,X
 565 009a 1297      		sbiw r26,2
 566 009c 1396      		adiw r26,3
 567 009e AC90      		ld r10,X
 568 00a0 1397      		sbiw r26,3
 569 00a2 1497      		sbiw r26,4
 570 00a4 0789      		ldd r16,Z+23
 571 00a6 1196      		adiw r26,1
 572 00a8 FC90      		ld r15,X
 573 00aa 1197      		sbiw r26,1
 574 00ac 1296      		adiw r26,2
 575 00ae EC90      		ld r14,X
 576 00b0 1297      		sbiw r26,2
 577 00b2 1396      		adiw r26,3
 578 00b4 4C90      		ld r4,X
 579 00b6 1397      		sbiw r26,3
 580 00b8 1497      		sbiw r26,4
 581 00ba 2389      		ldd r18,Z+19
 582 00bc 2A83      		std Y+2,r18
 583 00be 1196      		adiw r26,1
 584 00c0 1C91      		ld r17,X
 585 00c2 1197      		sbiw r26,1
 586 00c4 1296      		adiw r26,2
 587 00c6 5C90      		ld r5,X
 588 00c8 1297      		sbiw r26,2
 589 00ca 1396      		adiw r26,3
 590 00cc 3C90      		ld r3,X
 591 00ce 1397      		sbiw r26,3
 592 00d0 2289      		ldd r18,Z+18
 593 00d2 2983      		std Y+1,r18
 594 00d4 1597      		sbiw r26,5
 595 00d6 2685      		ldd r18,Z+14
 596 00d8 2B83      		std Y+3,r18
 597 00da 1196      		adiw r26,1
 598 00dc 2C91      		ld r18,X
 599 00de 1197      		sbiw r26,1
 600 00e0 2C83      		std Y+4,r18
 601 00e2 1296      		adiw r26,2
 602 00e4 2C91      		ld r18,X
 603 00e6 1297      		sbiw r26,2
 604 00e8 2D83      		std Y+5,r18
 605 00ea 1396      		adiw r26,3
 606 00ec 2C91      		ld r18,X
 607 00ee 2E83      		std Y+6,r18
 608 00f0 2485      		ldd r18,Z+12
 609 00f2 2F83      		std Y+7,r18
 610 00f4 2585      		ldd r18,Z+13
 611 00f6 2887      		std Y+8,r18
 612 00f8 B285      		ldd r27,Z+10
 613 00fa 2384      		ldd r2,Z+11
 614 00fc A185      		ldd r26,Z+9
 615 00fe 6181      		ldd r22,Z+1
 616 0100 7281      		ldd r23,Z+2
 617 0102 4481      		ldd r20,Z+4
 618 0104 5581      		ldd r21,Z+5
 159:HIDReportViewer.c **** 				 RItem->ItemFlags,
 619               		.loc 2 159 0
 620 0106 2381      		ldd r18,Z+3
 142:HIDReportViewer.c **** 					  "    - Report ID:          0x%02" PRIX8  "\r\n"
 621               		.loc 2 142 0
 622 0108 2223      		tst r18
 623 010a 01F0      		breq .L18
 159:HIDReportViewer.c **** 				 RItem->ItemFlags,
 624               		.loc 2 159 0
 625 010c 2130      		cpi r18,lo8(1)
 626 010e 01F0      		breq .L19
 627 0110 20E0      		ldi r18,lo8(.LC0)
 628 0112 30E0      		ldi r19,hi8(.LC0)
 629 0114 00C0      		rjmp .L16
 630               	.L18:
 142:HIDReportViewer.c **** 					  "    - Report ID:          0x%02" PRIX8  "\r\n"
 631               		.loc 2 142 0
 632 0116 20E0      		ldi r18,lo8(.LC1)
 633 0118 30E0      		ldi r19,hi8(.LC1)
 634 011a 00C0      		rjmp .L16
 635               	.L19:
 159:HIDReportViewer.c **** 				 RItem->ItemFlags,
 636               		.loc 2 159 0
 637 011c 20E0      		ldi r18,lo8(.LC2)
 638 011e 30E0      		ldi r19,hi8(.LC2)
 639               	.L16:
 142:HIDReportViewer.c **** 					  "    - Report ID:          0x%02" PRIX8  "\r\n"
 640               		.loc 2 142 0 discriminator 2
 641 0120 6F92      		push r6
 642 0122 7F92      		push r7
 643 0124 8F92      		push r8
 644 0126 9F92      		push r9
 645 0128 AF92      		push r10
 646 012a BF92      		push r11
 647 012c CF92      		push r12
 648 012e DF92      		push r13
 649 0130 4F92      		push r4
 650 0132 EF92      		push r14
 651 0134 FF92      		push r15
 652 0136 0F93      		push r16
 653 0138 3F92      		push r3
 654 013a 5F92      		push r5
 655 013c 1F93      		push r17
 656 013e EA81      		ldd r30,Y+2
 657 0140 EF93      		push r30
 658 0142 1F92      		push __zero_reg__
 659 0144 F981      		ldd r31,Y+1
 660 0146 FF93      		push r31
 661 0148 EE81      		ldd r30,Y+6
 662 014a EF93      		push r30
 663 014c FD81      		ldd r31,Y+5
 664 014e FF93      		push r31
 665 0150 EC81      		ldd r30,Y+4
 666 0152 EF93      		push r30
 667 0154 FB81      		ldd r31,Y+3
 668 0156 FF93      		push r31
 669 0158 E885      		ldd r30,Y+8
 670 015a EF93      		push r30
 671 015c FF81      		ldd r31,Y+7
 672 015e FF93      		push r31
 673 0160 2F92      		push r2
 674 0162 BF93      		push r27
 675 0164 1F92      		push __zero_reg__
 676 0166 AF93      		push r26
 677 0168 7F93      		push r23
 678 016a 6F93      		push r22
 679 016c 5F93      		push r21
 680 016e 4F93      		push r20
 681 0170 3F93      		push r19
 682 0172 2F93      		push r18
 158:HIDReportViewer.c **** 				 ((RItem->ItemType == HID_REPORT_ITEM_In) ? "IN" : ((RItem->ItemType == HID_REPORT_ITEM_Out) ? 
 683               		.loc 2 158 0 discriminator 2
 684 0174 2AE2      		ldi r18,lo8(42)
 685 0176 289F      		mul r18,r24
 686 0178 8001      		movw r16,r0
 687 017a 299F      		mul r18,r25
 688 017c 100D      		add r17,r0
 689 017e 1124      		clr __zero_reg__
 690 0180 0050      		subi r16,lo8(-(HIDReportInfo))
 691 0182 1040      		sbci r17,hi8(-(HIDReportInfo))
 142:HIDReportViewer.c **** 					  "    - Report ID:          0x%02" PRIX8  "\r\n"
 692               		.loc 2 142 0 discriminator 2
 693 0184 F801      		movw r30,r16
 694 0186 2681      		ldd r18,Z+6
 695 0188 1F92      		push __zero_reg__
 696 018a 2F93      		push r18
 697 018c 9F93      		push r25
 698 018e 8F93      		push r24
 699 0190 80E0      		ldi r24,lo8(__c.4505)
 700 0192 90E0      		ldi r25,hi8(__c.4505)
 701               	.LVL5:
 702 0194 9F93      		push r25
 703 0196 8F93      		push r24
 704 0198 0E94 0000 		call printf_P
 705               	.LVL6:
 172:HIDReportViewer.c **** 	}
 706               		.loc 2 172 0 discriminator 2
 707 019c 0FB6      		in __tmp_reg__,__SREG__
 708 019e F894      		cli
 709 01a0 DEBF      		out __SP_H__,r29
 710 01a2 0FBE      		out __SREG__,__tmp_reg__
 711 01a4 CDBF      		out __SP_L__,r28
 712 01a6 F801      		movw r30,r16
 713 01a8 8781      		ldd r24,Z+7
 714 01aa 9085      		ldd r25,Z+8
 715 01ac 0E94 0000 		call OutputCollectionPath
 716               	.LVL7:
 717               	.LBE14:
 138:HIDReportViewer.c **** 	{
 718               		.loc 2 138 0 discriminator 2
 719 01b0 F985      		ldd r31,Y+9
 720 01b2 FF5F      		subi r31,lo8(-(1))
 721 01b4 F987      		std Y+9,r31
 722               	.LVL8:
 723 01b6 00C0      		rjmp .L15
 724               	.LVL9:
 725               	.L20:
 726               	/* epilogue start */
 727               	.LBE13:
 174:HIDReportViewer.c **** 
 728               		.loc 2 174 0
 729 01b8 2996      		adiw r28,9
 730 01ba 0FB6      		in __tmp_reg__,__SREG__
 731 01bc F894      		cli
 732 01be DEBF      		out __SP_H__,r29
 733 01c0 0FBE      		out __SREG__,__tmp_reg__
 734 01c2 CDBF      		out __SP_L__,r28
 735 01c4 DF91      		pop r29
 736 01c6 CF91      		pop r28
 737 01c8 1F91      		pop r17
 738 01ca 0F91      		pop r16
 739 01cc FF90      		pop r15
 740 01ce EF90      		pop r14
 741 01d0 DF90      		pop r13
 742 01d2 CF90      		pop r12
 743 01d4 BF90      		pop r11
 744 01d6 AF90      		pop r10
 745 01d8 9F90      		pop r9
 746 01da 8F90      		pop r8
 747 01dc 7F90      		pop r7
 748 01de 6F90      		pop r6
 749 01e0 5F90      		pop r5
 750 01e2 4F90      		pop r4
 751 01e4 3F90      		pop r3
 752 01e6 2F90      		pop r2
 753 01e8 0895      		ret
 754               		.cfi_endproc
 755               	.LFE150:
 757               		.section	.text.RetrieveDeviceData,"ax",@progbits
 758               	.global	RetrieveDeviceData
 760               	RetrieveDeviceData:
 761               	.LFB148:
  88:HIDReportViewer.c **** 	if (USB_CurrentMode != USB_MODE_Host)
 762               		.loc 2 88 0
 763               		.cfi_startproc
 764               	/* prologue: function */
 765               	/* frame size = 0 */
 766               	/* stack size = 0 */
 767               	.L__stack_usage = 0
  92:HIDReportViewer.c **** 	
 768               		.loc 2 92 0
 769 0000 80ED      		ldi r24,lo8(-48)
 770 0002 0E94 0000 		call LEDs_SetAllLEDs
 771               	.LVL10:
  94:HIDReportViewer.c **** 	OutputParsedReportItems();
 772               		.loc 2 94 0
 773 0006 0E94 0000 		call OutputReportSizes
 774               	.LVL11:
  95:HIDReportViewer.c **** 	
 775               		.loc 2 95 0
 776 000a 0E94 0000 		call OutputParsedReportItems
 777               	.LVL12:
  97:HIDReportViewer.c **** 	USB_Host_SetDeviceConfiguration(0);
 778               		.loc 2 97 0
 779 000e 80E6      		ldi r24,lo8(96)
 780 0010 0E94 0000 		call LEDs_SetAllLEDs
 781               	.LVL13:
  98:HIDReportViewer.c **** }
 782               		.loc 2 98 0
 783 0014 80E0      		ldi r24,0
 784 0016 0C94 0000 		jmp USB_Host_SetDeviceConfiguration
 785               	.LVL14:
 786               		.cfi_endproc
 787               	.LFE148:
 789               		.section	.text.SetupHardware,"ax",@progbits
 790               	.global	SetupHardware
 792               	SetupHardware:
 793               	.LFB152:
 198:HIDReportViewer.c **** 
 199:HIDReportViewer.c **** /** Configures the board hardware and chip peripherals for the demo's functionality. */
 200:HIDReportViewer.c **** void SetupHardware(void)
 201:HIDReportViewer.c **** {
 794               		.loc 2 201 0
 795               		.cfi_startproc
 796               	/* prologue: function */
 797               	/* frame size = 0 */
 798               	/* stack size = 0 */
 799               	.L__stack_usage = 0
 202:HIDReportViewer.c **** 	/* Disable watchdog if enabled by bootloader/fuses */
 203:HIDReportViewer.c **** 	MCUSR &= ~(1 << WDRF);
 800               		.loc 2 203 0
 801 0000 84B7      		in r24,0x34
 802 0002 877F      		andi r24,lo8(-9)
 803 0004 84BF      		out 0x34,r24
 804               	.LBB25:
 805               	.LBB26:
 806               		.file 3 "/usr/lib/avr/include/avr/wdt.h"
   1:/usr/lib/avr/include/avr/wdt.h **** /* Copyright (c) 2002, 2004 Marek Michalkiewicz
   2:/usr/lib/avr/include/avr/wdt.h ****    Copyright (c) 2005, 2006, 2007 Eric B. Weddington
   3:/usr/lib/avr/include/avr/wdt.h ****    All rights reserved.
   4:/usr/lib/avr/include/avr/wdt.h **** 
   5:/usr/lib/avr/include/avr/wdt.h ****    Redistribution and use in source and binary forms, with or without
   6:/usr/lib/avr/include/avr/wdt.h ****    modification, are permitted provided that the following conditions are met:
   7:/usr/lib/avr/include/avr/wdt.h **** 
   8:/usr/lib/avr/include/avr/wdt.h ****    * Redistributions of source code must retain the above copyright
   9:/usr/lib/avr/include/avr/wdt.h ****      notice, this list of conditions and the following disclaimer.
  10:/usr/lib/avr/include/avr/wdt.h **** 
  11:/usr/lib/avr/include/avr/wdt.h ****    * Redistributions in binary form must reproduce the above copyright
  12:/usr/lib/avr/include/avr/wdt.h ****      notice, this list of conditions and the following disclaimer in
  13:/usr/lib/avr/include/avr/wdt.h ****      the documentation and/or other materials provided with the
  14:/usr/lib/avr/include/avr/wdt.h ****      distribution.
  15:/usr/lib/avr/include/avr/wdt.h **** 
  16:/usr/lib/avr/include/avr/wdt.h ****    * Neither the name of the copyright holders nor the names of
  17:/usr/lib/avr/include/avr/wdt.h ****      contributors may be used to endorse or promote products derived
  18:/usr/lib/avr/include/avr/wdt.h ****      from this software without specific prior written permission.
  19:/usr/lib/avr/include/avr/wdt.h **** 
  20:/usr/lib/avr/include/avr/wdt.h ****   THIS SOFTWARE IS PROVIDED BY THE COPYRIGHT HOLDERS AND CONTRIBUTORS "AS IS"
  21:/usr/lib/avr/include/avr/wdt.h ****   AND ANY EXPRESS OR IMPLIED WARRANTIES, INCLUDING, BUT NOT LIMITED TO, THE
  22:/usr/lib/avr/include/avr/wdt.h ****   IMPLIED WARRANTIES OF MERCHANTABILITY AND FITNESS FOR A PARTICULAR PURPOSE
  23:/usr/lib/avr/include/avr/wdt.h ****   ARE DISCLAIMED. IN NO EVENT SHALL THE COPYRIGHT OWNER OR CONTRIBUTORS BE
  24:/usr/lib/avr/include/avr/wdt.h ****   LIABLE FOR ANY DIRECT, INDIRECT, INCIDENTAL, SPECIAL, EXEMPLARY, OR
  25:/usr/lib/avr/include/avr/wdt.h ****   CONSEQUENTIAL DAMAGES (INCLUDING, BUT NOT LIMITED TO, PROCUREMENT OF
  26:/usr/lib/avr/include/avr/wdt.h ****   SUBSTITUTE GOODS OR SERVICES; LOSS OF USE, DATA, OR PROFITS; OR BUSINESS
  27:/usr/lib/avr/include/avr/wdt.h ****   INTERRUPTION) HOWEVER CAUSED AND ON ANY THEORY OF LIABILITY, WHETHER IN
  28:/usr/lib/avr/include/avr/wdt.h ****   CONTRACT, STRICT LIABILITY, OR TORT (INCLUDING NEGLIGENCE OR OTHERWISE)
  29:/usr/lib/avr/include/avr/wdt.h ****   ARISING IN ANY WAY OUT OF THE USE OF THIS SOFTWARE, EVEN IF ADVISED OF THE
  30:/usr/lib/avr/include/avr/wdt.h ****   POSSIBILITY OF SUCH DAMAGE. */
  31:/usr/lib/avr/include/avr/wdt.h **** 
  32:/usr/lib/avr/include/avr/wdt.h **** /* $Id$ */
  33:/usr/lib/avr/include/avr/wdt.h **** 
  34:/usr/lib/avr/include/avr/wdt.h **** /*
  35:/usr/lib/avr/include/avr/wdt.h ****    avr/wdt.h - macros for AVR watchdog timer
  36:/usr/lib/avr/include/avr/wdt.h ****  */
  37:/usr/lib/avr/include/avr/wdt.h **** 
  38:/usr/lib/avr/include/avr/wdt.h **** #ifndef _AVR_WDT_H_
  39:/usr/lib/avr/include/avr/wdt.h **** #define _AVR_WDT_H_
  40:/usr/lib/avr/include/avr/wdt.h **** 
  41:/usr/lib/avr/include/avr/wdt.h **** #include <avr/io.h>
  42:/usr/lib/avr/include/avr/wdt.h **** #include <stdint.h>
  43:/usr/lib/avr/include/avr/wdt.h **** 
  44:/usr/lib/avr/include/avr/wdt.h **** /** \file */
  45:/usr/lib/avr/include/avr/wdt.h **** /** \defgroup avr_watchdog <avr/wdt.h>: Watchdog timer handling
  46:/usr/lib/avr/include/avr/wdt.h ****     \code #include <avr/wdt.h> \endcode
  47:/usr/lib/avr/include/avr/wdt.h **** 
  48:/usr/lib/avr/include/avr/wdt.h ****     This header file declares the interface to some inline macros
  49:/usr/lib/avr/include/avr/wdt.h ****     handling the watchdog timer present in many AVR devices.  In order
  50:/usr/lib/avr/include/avr/wdt.h ****     to prevent the watchdog timer configuration from being
  51:/usr/lib/avr/include/avr/wdt.h ****     accidentally altered by a crashing application, a special timed
  52:/usr/lib/avr/include/avr/wdt.h ****     sequence is required in order to change it.  The macros within
  53:/usr/lib/avr/include/avr/wdt.h ****     this header file handle the required sequence automatically
  54:/usr/lib/avr/include/avr/wdt.h ****     before changing any value.  Interrupts will be disabled during
  55:/usr/lib/avr/include/avr/wdt.h ****     the manipulation.
  56:/usr/lib/avr/include/avr/wdt.h **** 
  57:/usr/lib/avr/include/avr/wdt.h ****     \note Depending on the fuse configuration of the particular
  58:/usr/lib/avr/include/avr/wdt.h ****     device, further restrictions might apply, in particular it might
  59:/usr/lib/avr/include/avr/wdt.h ****     be disallowed to turn off the watchdog timer.
  60:/usr/lib/avr/include/avr/wdt.h **** 
  61:/usr/lib/avr/include/avr/wdt.h ****     Note that for newer devices (ATmega88 and newer, effectively any
  62:/usr/lib/avr/include/avr/wdt.h ****     AVR that has the option to also generate interrupts), the watchdog
  63:/usr/lib/avr/include/avr/wdt.h ****     timer remains active even after a system reset (except a power-on
  64:/usr/lib/avr/include/avr/wdt.h ****     condition), using the fastest prescaler value (approximately 15
  65:/usr/lib/avr/include/avr/wdt.h ****     ms).  It is therefore required to turn off the watchdog early
  66:/usr/lib/avr/include/avr/wdt.h ****     during program startup, the datasheet recommends a sequence like
  67:/usr/lib/avr/include/avr/wdt.h ****     the following:
  68:/usr/lib/avr/include/avr/wdt.h **** 
  69:/usr/lib/avr/include/avr/wdt.h ****     \code
  70:/usr/lib/avr/include/avr/wdt.h ****     #include <stdint.h>
  71:/usr/lib/avr/include/avr/wdt.h ****     #include <avr/wdt.h>
  72:/usr/lib/avr/include/avr/wdt.h **** 
  73:/usr/lib/avr/include/avr/wdt.h ****     uint8_t mcusr_mirror __attribute__ ((section (".noinit")));
  74:/usr/lib/avr/include/avr/wdt.h **** 
  75:/usr/lib/avr/include/avr/wdt.h ****     void get_mcusr(void) \
  76:/usr/lib/avr/include/avr/wdt.h ****       __attribute__((naked)) \
  77:/usr/lib/avr/include/avr/wdt.h ****       __attribute__((section(".init3")));
  78:/usr/lib/avr/include/avr/wdt.h ****     void get_mcusr(void)
  79:/usr/lib/avr/include/avr/wdt.h ****     {
  80:/usr/lib/avr/include/avr/wdt.h ****       mcusr_mirror = MCUSR;
  81:/usr/lib/avr/include/avr/wdt.h ****       MCUSR = 0;
  82:/usr/lib/avr/include/avr/wdt.h ****       wdt_disable();
  83:/usr/lib/avr/include/avr/wdt.h ****     }
  84:/usr/lib/avr/include/avr/wdt.h ****     \endcode
  85:/usr/lib/avr/include/avr/wdt.h **** 
  86:/usr/lib/avr/include/avr/wdt.h ****     Saving the value of MCUSR in \c mcusr_mirror is only needed if the
  87:/usr/lib/avr/include/avr/wdt.h ****     application later wants to examine the reset source, but in particular, 
  88:/usr/lib/avr/include/avr/wdt.h ****     clearing the watchdog reset flag before disabling the
  89:/usr/lib/avr/include/avr/wdt.h ****     watchdog is required, according to the datasheet.
  90:/usr/lib/avr/include/avr/wdt.h **** */
  91:/usr/lib/avr/include/avr/wdt.h **** 
  92:/usr/lib/avr/include/avr/wdt.h **** /**
  93:/usr/lib/avr/include/avr/wdt.h ****    \ingroup avr_watchdog
  94:/usr/lib/avr/include/avr/wdt.h ****    Reset the watchdog timer.  When the watchdog timer is enabled,
  95:/usr/lib/avr/include/avr/wdt.h ****    a call to this instruction is required before the timer expires,
  96:/usr/lib/avr/include/avr/wdt.h ****    otherwise a watchdog-initiated device reset will occur. 
  97:/usr/lib/avr/include/avr/wdt.h **** */
  98:/usr/lib/avr/include/avr/wdt.h **** 
  99:/usr/lib/avr/include/avr/wdt.h **** #define wdt_reset() __asm__ __volatile__ ("wdr")
 100:/usr/lib/avr/include/avr/wdt.h **** 
 101:/usr/lib/avr/include/avr/wdt.h **** #ifndef __DOXYGEN__
 102:/usr/lib/avr/include/avr/wdt.h **** 
 103:/usr/lib/avr/include/avr/wdt.h **** #if defined(WDP3)
 104:/usr/lib/avr/include/avr/wdt.h **** # define _WD_PS3_MASK       _BV(WDP3)
 105:/usr/lib/avr/include/avr/wdt.h **** #else
 106:/usr/lib/avr/include/avr/wdt.h **** # define _WD_PS3_MASK       0x00
 107:/usr/lib/avr/include/avr/wdt.h **** #endif
 108:/usr/lib/avr/include/avr/wdt.h **** 
 109:/usr/lib/avr/include/avr/wdt.h **** #if defined(WDTCSR)
 110:/usr/lib/avr/include/avr/wdt.h **** #  define _WD_CONTROL_REG     WDTCSR
 111:/usr/lib/avr/include/avr/wdt.h **** #elif defined(WDTCR)
 112:/usr/lib/avr/include/avr/wdt.h **** #  define _WD_CONTROL_REG     WDTCR
 113:/usr/lib/avr/include/avr/wdt.h **** #else
 114:/usr/lib/avr/include/avr/wdt.h **** #  define _WD_CONTROL_REG     WDT
 115:/usr/lib/avr/include/avr/wdt.h **** #endif
 116:/usr/lib/avr/include/avr/wdt.h **** 
 117:/usr/lib/avr/include/avr/wdt.h **** #if defined(WDTOE)
 118:/usr/lib/avr/include/avr/wdt.h **** #define _WD_CHANGE_BIT      WDTOE
 119:/usr/lib/avr/include/avr/wdt.h **** #else
 120:/usr/lib/avr/include/avr/wdt.h **** #define _WD_CHANGE_BIT      WDCE
 121:/usr/lib/avr/include/avr/wdt.h **** #endif
 122:/usr/lib/avr/include/avr/wdt.h **** 
 123:/usr/lib/avr/include/avr/wdt.h **** #endif	/* !__DOXYGEN__ */
 124:/usr/lib/avr/include/avr/wdt.h **** 
 125:/usr/lib/avr/include/avr/wdt.h **** 
 126:/usr/lib/avr/include/avr/wdt.h **** /**
 127:/usr/lib/avr/include/avr/wdt.h ****    \ingroup avr_watchdog
 128:/usr/lib/avr/include/avr/wdt.h ****    Enable the watchdog timer, configuring it for expiry after
 129:/usr/lib/avr/include/avr/wdt.h ****    \c timeout (which is a combination of the \c WDP0 through
 130:/usr/lib/avr/include/avr/wdt.h ****    \c WDP2 bits to write into the \c WDTCR register; For those devices 
 131:/usr/lib/avr/include/avr/wdt.h ****    that have a \c WDTCSR register, it uses the combination of the \c WDP0 
 132:/usr/lib/avr/include/avr/wdt.h ****    through \c WDP3 bits).
 133:/usr/lib/avr/include/avr/wdt.h **** 
 134:/usr/lib/avr/include/avr/wdt.h ****    See also the symbolic constants \c WDTO_15MS et al.
 135:/usr/lib/avr/include/avr/wdt.h **** */
 136:/usr/lib/avr/include/avr/wdt.h **** 
 137:/usr/lib/avr/include/avr/wdt.h **** 
 138:/usr/lib/avr/include/avr/wdt.h **** #if defined(__AVR_XMEGA__)
 139:/usr/lib/avr/include/avr/wdt.h **** 
 140:/usr/lib/avr/include/avr/wdt.h **** #if defined (WDT_CTRLA) && !defined(RAMPD)
 141:/usr/lib/avr/include/avr/wdt.h **** 
 142:/usr/lib/avr/include/avr/wdt.h **** #define wdt_enable(timeout) \
 143:/usr/lib/avr/include/avr/wdt.h **** do { \
 144:/usr/lib/avr/include/avr/wdt.h **** uint8_t temp; \
 145:/usr/lib/avr/include/avr/wdt.h **** __asm__ __volatile__ ( \
 146:/usr/lib/avr/include/avr/wdt.h **** 	"wdr"									"\n\t" \
 147:/usr/lib/avr/include/avr/wdt.h **** 	"out %[ccp_reg], %[ioreg_cen_mask]"		"\n\t" \
 148:/usr/lib/avr/include/avr/wdt.h **** 	"lds %[tmp], %[wdt_reg]"				"\n\t" \
 149:/usr/lib/avr/include/avr/wdt.h **** 	"sbr %[tmp], %[wdt_enable_timeout]"		"\n\t" \
 150:/usr/lib/avr/include/avr/wdt.h **** 	"sts %[wdt_reg], %[tmp]"				"\n\t" \
 151:/usr/lib/avr/include/avr/wdt.h **** 	"1:lds %[tmp], %[wdt_status_reg]"		"\n\t" \
 152:/usr/lib/avr/include/avr/wdt.h **** 	"sbrc %[tmp], %[wdt_syncbusy_bit]"		"\n\t" \
 153:/usr/lib/avr/include/avr/wdt.h **** 	"rjmp 1b"								"\n\t" \
 154:/usr/lib/avr/include/avr/wdt.h **** 	: [tmp]					"=r" (temp) \
 155:/usr/lib/avr/include/avr/wdt.h **** 	: [ccp_reg]				"I"  (_SFR_IO_ADDR(CCP)), \
 156:/usr/lib/avr/include/avr/wdt.h **** 	  [ioreg_cen_mask]		"r"  ((uint8_t)CCP_IOREG_gc), \
 157:/usr/lib/avr/include/avr/wdt.h **** 	  [wdt_reg]				"n"  (_SFR_MEM_ADDR(WDT_CTRLA)), \
 158:/usr/lib/avr/include/avr/wdt.h **** 	  [wdt_enable_timeout]	"M"  (timeout), \
 159:/usr/lib/avr/include/avr/wdt.h **** 	  [wdt_status_reg]		"n"  (_SFR_MEM_ADDR(WDT_STATUS)), \
 160:/usr/lib/avr/include/avr/wdt.h **** 	  [wdt_syncbusy_bit]	"I"  (WDT_SYNCBUSY_bm) \
 161:/usr/lib/avr/include/avr/wdt.h **** ); \
 162:/usr/lib/avr/include/avr/wdt.h **** } while(0)
 163:/usr/lib/avr/include/avr/wdt.h **** 
 164:/usr/lib/avr/include/avr/wdt.h **** #define wdt_disable() \
 165:/usr/lib/avr/include/avr/wdt.h **** do { \
 166:/usr/lib/avr/include/avr/wdt.h **** uint8_t temp; \
 167:/usr/lib/avr/include/avr/wdt.h **** __asm__ __volatile__ (  \
 168:/usr/lib/avr/include/avr/wdt.h **** 	"wdr"								"\n\t" \
 169:/usr/lib/avr/include/avr/wdt.h **** 	"out %[ccp_reg], %[ioreg_cen_mask]" "\n\t" \
 170:/usr/lib/avr/include/avr/wdt.h **** 	"lds %[tmp], %[wdt_reg]"			"\n\t" \
 171:/usr/lib/avr/include/avr/wdt.h **** 	"cbr %[tmp], %[timeout_mask]"       "\n\t" \
 172:/usr/lib/avr/include/avr/wdt.h **** 	"sts %[wdt_reg], %[tmp]"			"\n\t" \
 173:/usr/lib/avr/include/avr/wdt.h ****     : [tmp]            "=r" (temp) \
 174:/usr/lib/avr/include/avr/wdt.h ****     : [ccp_reg]        "I" (_SFR_IO_ADDR(CCP)),       \
 175:/usr/lib/avr/include/avr/wdt.h ****       [ioreg_cen_mask] "r" ((uint8_t)CCP_IOREG_gc),   \
 176:/usr/lib/avr/include/avr/wdt.h ****       [wdt_reg]        "n" (_SFR_MEM_ADDR(WDT_CTRLA)),\
 177:/usr/lib/avr/include/avr/wdt.h ****       [timeout_mask]   "I" (WDT_PERIOD_gm) \
 178:/usr/lib/avr/include/avr/wdt.h **** ); \
 179:/usr/lib/avr/include/avr/wdt.h **** } while(0)
 180:/usr/lib/avr/include/avr/wdt.h **** 
 181:/usr/lib/avr/include/avr/wdt.h **** #else // defined (WDT_CTRLA) && !defined(RAMPD)
 182:/usr/lib/avr/include/avr/wdt.h **** 
 183:/usr/lib/avr/include/avr/wdt.h **** /*
 184:/usr/lib/avr/include/avr/wdt.h ****    wdt_enable(timeout) for xmega devices
 185:/usr/lib/avr/include/avr/wdt.h **** ** write signature (CCP_IOREG_gc) that enables change of protected I/O
 186:/usr/lib/avr/include/avr/wdt.h ****    registers to the CCP register
 187:/usr/lib/avr/include/avr/wdt.h **** ** At the same time,
 188:/usr/lib/avr/include/avr/wdt.h ****    1) set WDT change enable (WDT_CEN_bm)
 189:/usr/lib/avr/include/avr/wdt.h ****    2) enable WDT (WDT_ENABLE_bm)
 190:/usr/lib/avr/include/avr/wdt.h ****    3) set timeout (timeout)
 191:/usr/lib/avr/include/avr/wdt.h **** ** Synchronization starts when ENABLE bit of WDT is set. So, wait till it
 192:/usr/lib/avr/include/avr/wdt.h ****    finishes (SYNCBUSY of STATUS register is automatically cleared after the
 193:/usr/lib/avr/include/avr/wdt.h ****    sync is finished).
 194:/usr/lib/avr/include/avr/wdt.h **** */
 195:/usr/lib/avr/include/avr/wdt.h **** #define wdt_enable(timeout) \
 196:/usr/lib/avr/include/avr/wdt.h **** do { \
 197:/usr/lib/avr/include/avr/wdt.h **** uint8_t temp; \
 198:/usr/lib/avr/include/avr/wdt.h **** __asm__ __volatile__ (         \
 199:/usr/lib/avr/include/avr/wdt.h ****     "in __tmp_reg__, %[rampd]"              "\n\t" \
 200:/usr/lib/avr/include/avr/wdt.h ****     "out %[rampd], __zero_reg__"            "\n\t" \
 201:/usr/lib/avr/include/avr/wdt.h ****     "out %[ccp_reg], %[ioreg_cen_mask]"     "\n\t" \
 202:/usr/lib/avr/include/avr/wdt.h ****     "sts %[wdt_reg], %[wdt_enable_timeout]" "\n\t" \
 203:/usr/lib/avr/include/avr/wdt.h ****     "1:lds %[tmp], %[wdt_status_reg]"       "\n\t" \
 204:/usr/lib/avr/include/avr/wdt.h ****     "sbrc %[tmp], %[wdt_syncbusy_bit]"      "\n\t" \
 205:/usr/lib/avr/include/avr/wdt.h ****     "rjmp 1b"                               "\n\t" \
 206:/usr/lib/avr/include/avr/wdt.h ****     "out %[rampd], __tmp_reg__"             "\n\t" \
 207:/usr/lib/avr/include/avr/wdt.h ****     : [tmp]                "=r" (temp) \
 208:/usr/lib/avr/include/avr/wdt.h ****     : [rampd]              "I" (_SFR_IO_ADDR(RAMPD)),      \
 209:/usr/lib/avr/include/avr/wdt.h ****       [ccp_reg]            "I" (_SFR_IO_ADDR(CCP)),        \
 210:/usr/lib/avr/include/avr/wdt.h ****       [ioreg_cen_mask]     "r" ((uint8_t)CCP_IOREG_gc),     \
 211:/usr/lib/avr/include/avr/wdt.h ****       [wdt_reg]            "n" (_SFR_MEM_ADDR(WDT_CTRL)),   \
 212:/usr/lib/avr/include/avr/wdt.h ****       [wdt_enable_timeout] "r" ((uint8_t)(WDT_CEN_bm | WDT_ENABLE_bm | timeout)), \
 213:/usr/lib/avr/include/avr/wdt.h ****       [wdt_status_reg]     "n" (_SFR_MEM_ADDR(WDT_STATUS)), \
 214:/usr/lib/avr/include/avr/wdt.h ****       [wdt_syncbusy_bit]   "I" (WDT_SYNCBUSY_bm)            \
 215:/usr/lib/avr/include/avr/wdt.h ****     : "r0" \
 216:/usr/lib/avr/include/avr/wdt.h **** ); \
 217:/usr/lib/avr/include/avr/wdt.h **** } while(0)
 218:/usr/lib/avr/include/avr/wdt.h **** 
 219:/usr/lib/avr/include/avr/wdt.h **** #define wdt_disable() \
 220:/usr/lib/avr/include/avr/wdt.h **** __asm__ __volatile__ (  \
 221:/usr/lib/avr/include/avr/wdt.h ****     "in __tmp_reg__, %[rampd]"          "\n\t" \
 222:/usr/lib/avr/include/avr/wdt.h ****     "out %[rampd], __zero_reg__"        "\n\t" \
 223:/usr/lib/avr/include/avr/wdt.h ****     "out %[ccp_reg], %[ioreg_cen_mask]" "\n\t" \
 224:/usr/lib/avr/include/avr/wdt.h ****     "sts %[wdt_reg], %[disable_mask]"   "\n\t" \
 225:/usr/lib/avr/include/avr/wdt.h ****     "out %[rampd], __tmp_reg__"         "\n\t" \
 226:/usr/lib/avr/include/avr/wdt.h ****     : \
 227:/usr/lib/avr/include/avr/wdt.h ****     : [rampd]             "I" (_SFR_IO_ADDR(RAMPD)),    \
 228:/usr/lib/avr/include/avr/wdt.h ****       [ccp_reg]           "I" (_SFR_IO_ADDR(CCP)),      \
 229:/usr/lib/avr/include/avr/wdt.h ****       [ioreg_cen_mask]    "r" ((uint8_t)CCP_IOREG_gc),   \
 230:/usr/lib/avr/include/avr/wdt.h ****       [wdt_reg]           "n" (_SFR_MEM_ADDR(WDT_CTRL)), \
 231:/usr/lib/avr/include/avr/wdt.h ****       [disable_mask]      "r" ((uint8_t)((~WDT_ENABLE_bm) | WDT_CEN_bm)) \
 232:/usr/lib/avr/include/avr/wdt.h ****     : "r0" \
 233:/usr/lib/avr/include/avr/wdt.h **** );
 234:/usr/lib/avr/include/avr/wdt.h **** 
 235:/usr/lib/avr/include/avr/wdt.h **** #endif // defined (WDT_CTRLA) && !defined(RAMPD)
 236:/usr/lib/avr/include/avr/wdt.h **** 
 237:/usr/lib/avr/include/avr/wdt.h **** #elif defined(__AVR_TINY__)
 238:/usr/lib/avr/include/avr/wdt.h **** 
 239:/usr/lib/avr/include/avr/wdt.h **** #define wdt_enable(value) \
 240:/usr/lib/avr/include/avr/wdt.h **** __asm__ __volatile__ ( \
 241:/usr/lib/avr/include/avr/wdt.h ****     "in __tmp_reg__,__SREG__" "\n\t"  \
 242:/usr/lib/avr/include/avr/wdt.h ****     "cli" "\n\t"  \
 243:/usr/lib/avr/include/avr/wdt.h ****     "wdr" "\n\t"  \
 244:/usr/lib/avr/include/avr/wdt.h ****     "out %[CCPADDRESS],%[SIGNATURE]" "\n\t"  \
 245:/usr/lib/avr/include/avr/wdt.h ****     "out %[WDTREG],%[WDVALUE]" "\n\t"  \
 246:/usr/lib/avr/include/avr/wdt.h ****     "out __SREG__,__tmp_reg__" "\n\t"  \
 247:/usr/lib/avr/include/avr/wdt.h ****     : /* no outputs */  \
 248:/usr/lib/avr/include/avr/wdt.h ****     : [CCPADDRESS] "I" (_SFR_IO_ADDR(CCP)),  \
 249:/usr/lib/avr/include/avr/wdt.h ****       [SIGNATURE] "r" ((uint8_t)0xD8), \
 250:/usr/lib/avr/include/avr/wdt.h ****       [WDTREG] "I" (_SFR_IO_ADDR(_WD_CONTROL_REG)), \
 251:/usr/lib/avr/include/avr/wdt.h ****       [WDVALUE] "r" ((uint8_t)((value & 0x08 ? _WD_PS3_MASK : 0x00) \
 252:/usr/lib/avr/include/avr/wdt.h ****       | _BV(WDE) | (value & 0x07) )) \
 253:/usr/lib/avr/include/avr/wdt.h ****     : "r16" \
 254:/usr/lib/avr/include/avr/wdt.h **** )
 255:/usr/lib/avr/include/avr/wdt.h **** 
 256:/usr/lib/avr/include/avr/wdt.h **** #define wdt_disable() \
 257:/usr/lib/avr/include/avr/wdt.h **** do { \
 258:/usr/lib/avr/include/avr/wdt.h **** uint8_t temp_wd; \
 259:/usr/lib/avr/include/avr/wdt.h **** __asm__ __volatile__ ( \
 260:/usr/lib/avr/include/avr/wdt.h ****     "in __tmp_reg__,__SREG__" "\n\t"  \
 261:/usr/lib/avr/include/avr/wdt.h ****     "cli" "\n\t"  \
 262:/usr/lib/avr/include/avr/wdt.h ****     "wdr" "\n\t"  \
 263:/usr/lib/avr/include/avr/wdt.h ****     "out %[CCPADDRESS],%[SIGNATURE]" "\n\t"  \
 264:/usr/lib/avr/include/avr/wdt.h ****     "in  %[TEMP_WD],%[WDTREG]" "\n\t" \
 265:/usr/lib/avr/include/avr/wdt.h ****     "cbr %[TEMP_WD],%[WDVALUE]" "\n\t" \
 266:/usr/lib/avr/include/avr/wdt.h ****     "out %[WDTREG],%[TEMP_WD]" "\n\t" \
 267:/usr/lib/avr/include/avr/wdt.h ****     "out __SREG__,__tmp_reg__" "\n\t" \
 268:/usr/lib/avr/include/avr/wdt.h ****     : /*no output */ \
 269:/usr/lib/avr/include/avr/wdt.h ****     : [CCPADDRESS] "I" (_SFR_IO_ADDR(CCP)), \
 270:/usr/lib/avr/include/avr/wdt.h ****       [SIGNATURE] "r" ((uint8_t)0xD8), \
 271:/usr/lib/avr/include/avr/wdt.h ****       [WDTREG] "I" (_SFR_IO_ADDR(_WD_CONTROL_REG)), \
 272:/usr/lib/avr/include/avr/wdt.h ****       [TEMP_WD] "d" (temp_wd), \
 273:/usr/lib/avr/include/avr/wdt.h ****       [WDVALUE] "n" (1 << WDE) \
 274:/usr/lib/avr/include/avr/wdt.h ****     : "r16" \
 275:/usr/lib/avr/include/avr/wdt.h **** ); \
 276:/usr/lib/avr/include/avr/wdt.h **** }while(0)
 277:/usr/lib/avr/include/avr/wdt.h **** 
 278:/usr/lib/avr/include/avr/wdt.h **** #elif defined(CCP)
 279:/usr/lib/avr/include/avr/wdt.h **** 
 280:/usr/lib/avr/include/avr/wdt.h **** static __inline__
 281:/usr/lib/avr/include/avr/wdt.h **** __attribute__ ((__always_inline__))
 282:/usr/lib/avr/include/avr/wdt.h **** void wdt_enable (const uint8_t value)
 283:/usr/lib/avr/include/avr/wdt.h **** {
 284:/usr/lib/avr/include/avr/wdt.h **** 	if (!_SFR_IO_REG_P (CCP) && !_SFR_IO_REG_P (_WD_CONTROL_REG))
 285:/usr/lib/avr/include/avr/wdt.h **** 	{
 286:/usr/lib/avr/include/avr/wdt.h **** 		__asm__ __volatile__ (
 287:/usr/lib/avr/include/avr/wdt.h **** 			"in __tmp_reg__,__SREG__" "\n\t"
 288:/usr/lib/avr/include/avr/wdt.h **** 			"cli" "\n\t"
 289:/usr/lib/avr/include/avr/wdt.h **** 			"wdr" "\n\t"
 290:/usr/lib/avr/include/avr/wdt.h **** 			"sts %[CCPADDRESS],%[SIGNATURE]" "\n\t"
 291:/usr/lib/avr/include/avr/wdt.h **** 			"sts %[WDTREG],%[WDVALUE]" "\n\t"
 292:/usr/lib/avr/include/avr/wdt.h **** 			"out __SREG__,__tmp_reg__" "\n\t"
 293:/usr/lib/avr/include/avr/wdt.h **** 			: /* no outputs */
 294:/usr/lib/avr/include/avr/wdt.h **** 			: [CCPADDRESS] "n" (_SFR_MEM_ADDR(CCP)),
 295:/usr/lib/avr/include/avr/wdt.h **** 			[SIGNATURE] "r" ((uint8_t)0xD8),
 296:/usr/lib/avr/include/avr/wdt.h **** 			[WDTREG] "n" (_SFR_MEM_ADDR(_WD_CONTROL_REG)),
 297:/usr/lib/avr/include/avr/wdt.h **** 			[WDVALUE] "r" ((uint8_t)((value & 0x08 ? _WD_PS3_MASK : 0x00)
 298:/usr/lib/avr/include/avr/wdt.h **** 				| _BV(WDE) | (value & 0x07) ))
 299:/usr/lib/avr/include/avr/wdt.h **** 			: "r0"
 300:/usr/lib/avr/include/avr/wdt.h **** 			);
 301:/usr/lib/avr/include/avr/wdt.h **** 	}
 302:/usr/lib/avr/include/avr/wdt.h **** 	else if (!_SFR_IO_REG_P (CCP) && _SFR_IO_REG_P (_WD_CONTROL_REG))
 303:/usr/lib/avr/include/avr/wdt.h **** 	{
 304:/usr/lib/avr/include/avr/wdt.h **** 		__asm__ __volatile__ (
 305:/usr/lib/avr/include/avr/wdt.h **** 			"in __tmp_reg__,__SREG__" "\n\t"
 306:/usr/lib/avr/include/avr/wdt.h **** 			"cli" "\n\t"
 307:/usr/lib/avr/include/avr/wdt.h **** 			"wdr" "\n\t"
 308:/usr/lib/avr/include/avr/wdt.h **** 			"sts %[CCPADDRESS],%[SIGNATURE]" "\n\t"
 309:/usr/lib/avr/include/avr/wdt.h **** 			"out %[WDTREG],%[WDVALUE]" "\n\t"
 310:/usr/lib/avr/include/avr/wdt.h **** 			"out __SREG__,__tmp_reg__" "\n\t"
 311:/usr/lib/avr/include/avr/wdt.h **** 			: /* no outputs */
 312:/usr/lib/avr/include/avr/wdt.h **** 			: [CCPADDRESS] "n" (_SFR_MEM_ADDR(CCP)),
 313:/usr/lib/avr/include/avr/wdt.h **** 			[SIGNATURE] "r" ((uint8_t)0xD8),
 314:/usr/lib/avr/include/avr/wdt.h **** 			[WDTREG] "I" (_SFR_IO_ADDR(_WD_CONTROL_REG)),
 315:/usr/lib/avr/include/avr/wdt.h **** 			[WDVALUE] "r" ((uint8_t)((value & 0x08 ? _WD_PS3_MASK : 0x00)
 316:/usr/lib/avr/include/avr/wdt.h **** 				| _BV(WDE) | (value & 0x07) ))
 317:/usr/lib/avr/include/avr/wdt.h **** 			: "r0"
 318:/usr/lib/avr/include/avr/wdt.h **** 			);
 319:/usr/lib/avr/include/avr/wdt.h **** 	}
 320:/usr/lib/avr/include/avr/wdt.h **** 	else if (_SFR_IO_REG_P (CCP) && !_SFR_IO_REG_P (_WD_CONTROL_REG))
 321:/usr/lib/avr/include/avr/wdt.h **** 	{
 322:/usr/lib/avr/include/avr/wdt.h **** 		__asm__ __volatile__ (
 323:/usr/lib/avr/include/avr/wdt.h **** 			"in __tmp_reg__,__SREG__" "\n\t"
 324:/usr/lib/avr/include/avr/wdt.h **** 			"cli" "\n\t"
 325:/usr/lib/avr/include/avr/wdt.h **** 			"wdr" "\n\t"
 326:/usr/lib/avr/include/avr/wdt.h **** 			"out %[CCPADDRESS],%[SIGNATURE]" "\n\t"
 327:/usr/lib/avr/include/avr/wdt.h **** 			"sts %[WDTREG],%[WDVALUE]" "\n\t"
 328:/usr/lib/avr/include/avr/wdt.h **** 			"out __SREG__,__tmp_reg__" "\n\t"
 329:/usr/lib/avr/include/avr/wdt.h **** 			: /* no outputs */
 330:/usr/lib/avr/include/avr/wdt.h **** 			: [CCPADDRESS] "I" (_SFR_IO_ADDR(CCP)),
 331:/usr/lib/avr/include/avr/wdt.h **** 			[SIGNATURE] "r" ((uint8_t)0xD8),
 332:/usr/lib/avr/include/avr/wdt.h **** 			[WDTREG] "n" (_SFR_MEM_ADDR(_WD_CONTROL_REG)),
 333:/usr/lib/avr/include/avr/wdt.h **** 			[WDVALUE] "r" ((uint8_t)((value & 0x08 ? _WD_PS3_MASK : 0x00)
 334:/usr/lib/avr/include/avr/wdt.h **** 				| _BV(WDE) | (value & 0x07) ))
 335:/usr/lib/avr/include/avr/wdt.h **** 			: "r0"
 336:/usr/lib/avr/include/avr/wdt.h **** 			);
 337:/usr/lib/avr/include/avr/wdt.h **** 	}
 338:/usr/lib/avr/include/avr/wdt.h **** 	else
 339:/usr/lib/avr/include/avr/wdt.h ****  	{
 340:/usr/lib/avr/include/avr/wdt.h **** 		__asm__ __volatile__ (
 341:/usr/lib/avr/include/avr/wdt.h **** 			"in __tmp_reg__,__SREG__" "\n\t"
 342:/usr/lib/avr/include/avr/wdt.h **** 			"cli" "\n\t"
 343:/usr/lib/avr/include/avr/wdt.h **** 			"wdr" "\n\t"
 344:/usr/lib/avr/include/avr/wdt.h **** 			"out %[CCPADDRESS],%[SIGNATURE]" "\n\t"
 345:/usr/lib/avr/include/avr/wdt.h **** 			"out %[WDTREG],%[WDVALUE]" "\n\t"
 346:/usr/lib/avr/include/avr/wdt.h **** 			"out __SREG__,__tmp_reg__" "\n\t"
 347:/usr/lib/avr/include/avr/wdt.h **** 			: /* no outputs */
 348:/usr/lib/avr/include/avr/wdt.h **** 			: [CCPADDRESS] "I" (_SFR_IO_ADDR(CCP)),
 349:/usr/lib/avr/include/avr/wdt.h **** 			[SIGNATURE] "r" ((uint8_t)0xD8),
 350:/usr/lib/avr/include/avr/wdt.h **** 			[WDTREG] "I" (_SFR_IO_ADDR(_WD_CONTROL_REG)),
 351:/usr/lib/avr/include/avr/wdt.h **** 			[WDVALUE] "r" ((uint8_t)((value & 0x08 ? _WD_PS3_MASK : 0x00)
 352:/usr/lib/avr/include/avr/wdt.h **** 				| _BV(WDE) | (value & 0x07) ))
 353:/usr/lib/avr/include/avr/wdt.h **** 			: "r0"
 354:/usr/lib/avr/include/avr/wdt.h **** 			);
 355:/usr/lib/avr/include/avr/wdt.h **** 	}
 356:/usr/lib/avr/include/avr/wdt.h **** }
 357:/usr/lib/avr/include/avr/wdt.h **** 
 358:/usr/lib/avr/include/avr/wdt.h **** static __inline__
 359:/usr/lib/avr/include/avr/wdt.h **** __attribute__ ((__always_inline__))
 360:/usr/lib/avr/include/avr/wdt.h **** void wdt_disable (void)
 361:/usr/lib/avr/include/avr/wdt.h **** {
 362:/usr/lib/avr/include/avr/wdt.h **** 	if (!_SFR_IO_REG_P (CCP) && !_SFR_IO_REG_P(_WD_CONTROL_REG))
 363:/usr/lib/avr/include/avr/wdt.h **** 	{
 364:/usr/lib/avr/include/avr/wdt.h ****         uint8_t temp_wd;
 365:/usr/lib/avr/include/avr/wdt.h ****         __asm__ __volatile__ (
 366:/usr/lib/avr/include/avr/wdt.h **** 				"in __tmp_reg__,__SREG__" "\n\t"
 367:/usr/lib/avr/include/avr/wdt.h **** 				"cli" "\n\t"
 368:/usr/lib/avr/include/avr/wdt.h **** 				"wdr" "\n\t"
 369:/usr/lib/avr/include/avr/wdt.h **** 				"sts %[CCPADDRESS],%[SIGNATURE]" "\n\t"
 370:/usr/lib/avr/include/avr/wdt.h **** 				"lds %[TEMP_WD],%[WDTREG]" "\n\t"
 371:/usr/lib/avr/include/avr/wdt.h **** 				"cbr %[TEMP_WD],%[WDVALUE]" "\n\t"
 372:/usr/lib/avr/include/avr/wdt.h **** 				"sts %[WDTREG],%[TEMP_WD]" "\n\t"
 373:/usr/lib/avr/include/avr/wdt.h **** 				"out __SREG__,__tmp_reg__" "\n\t"
 374:/usr/lib/avr/include/avr/wdt.h **** 				: /*no output */
 375:/usr/lib/avr/include/avr/wdt.h **** 				: [CCPADDRESS] "n" (_SFR_MEM_ADDR(CCP)),
 376:/usr/lib/avr/include/avr/wdt.h **** 				[SIGNATURE] "r" ((uint8_t)0xD8),
 377:/usr/lib/avr/include/avr/wdt.h **** 				[WDTREG] "n" (_SFR_MEM_ADDR(_WD_CONTROL_REG)),
 378:/usr/lib/avr/include/avr/wdt.h **** 				[TEMP_WD] "d" (temp_wd),
 379:/usr/lib/avr/include/avr/wdt.h **** 				[WDVALUE] "n" (1 << WDE)
 380:/usr/lib/avr/include/avr/wdt.h **** 				: "r0"
 381:/usr/lib/avr/include/avr/wdt.h **** 				);
 382:/usr/lib/avr/include/avr/wdt.h **** 	}
 383:/usr/lib/avr/include/avr/wdt.h **** 	else if (!_SFR_IO_REG_P (CCP) && _SFR_IO_REG_P(_WD_CONTROL_REG))
 384:/usr/lib/avr/include/avr/wdt.h **** 	{
 385:/usr/lib/avr/include/avr/wdt.h ****         uint8_t temp_wd;
 386:/usr/lib/avr/include/avr/wdt.h ****         __asm__ __volatile__ (
 387:/usr/lib/avr/include/avr/wdt.h **** 				"in __tmp_reg__,__SREG__" "\n\t"
 388:/usr/lib/avr/include/avr/wdt.h **** 				"cli" "\n\t"
 389:/usr/lib/avr/include/avr/wdt.h **** 				"wdr" "\n\t"
 390:/usr/lib/avr/include/avr/wdt.h **** 				"sts %[CCPADDRESS],%[SIGNATURE]" "\n\t"
 391:/usr/lib/avr/include/avr/wdt.h **** 				"in %[TEMP_WD],%[WDTREG]" "\n\t"
 392:/usr/lib/avr/include/avr/wdt.h **** 				"cbr %[TEMP_WD],%[WDVALUE]" "\n\t"
 393:/usr/lib/avr/include/avr/wdt.h **** 				"out %[WDTREG],%[TEMP_WD]" "\n\t"
 394:/usr/lib/avr/include/avr/wdt.h **** 				"out __SREG__,__tmp_reg__" "\n\t"
 395:/usr/lib/avr/include/avr/wdt.h **** 				: /*no output */
 396:/usr/lib/avr/include/avr/wdt.h **** 				: [CCPADDRESS] "n" (_SFR_MEM_ADDR(CCP)),
 397:/usr/lib/avr/include/avr/wdt.h **** 				[SIGNATURE] "r" ((uint8_t)0xD8),
 398:/usr/lib/avr/include/avr/wdt.h **** 				[WDTREG] "I" (_SFR_IO_ADDR(_WD_CONTROL_REG)),
 399:/usr/lib/avr/include/avr/wdt.h **** 				[TEMP_WD] "d" (temp_wd),
 400:/usr/lib/avr/include/avr/wdt.h **** 				[WDVALUE] "n" (1 << WDE)
 401:/usr/lib/avr/include/avr/wdt.h **** 				: "r0"
 402:/usr/lib/avr/include/avr/wdt.h **** 				);
 403:/usr/lib/avr/include/avr/wdt.h **** 	}
 404:/usr/lib/avr/include/avr/wdt.h **** 	else if (_SFR_IO_REG_P (CCP) && !_SFR_IO_REG_P(_WD_CONTROL_REG))
 405:/usr/lib/avr/include/avr/wdt.h **** 	{
 406:/usr/lib/avr/include/avr/wdt.h ****         uint8_t temp_wd;
 407:/usr/lib/avr/include/avr/wdt.h ****         __asm__ __volatile__ (
 408:/usr/lib/avr/include/avr/wdt.h **** 				"in __tmp_reg__,__SREG__" "\n\t"
 409:/usr/lib/avr/include/avr/wdt.h **** 				"cli" "\n\t"
 410:/usr/lib/avr/include/avr/wdt.h **** 				"wdr" "\n\t"
 411:/usr/lib/avr/include/avr/wdt.h **** 				"out %[CCPADDRESS],%[SIGNATURE]" "\n\t"
 412:/usr/lib/avr/include/avr/wdt.h **** 				"lds %[TEMP_WD],%[WDTREG]" "\n\t"
 413:/usr/lib/avr/include/avr/wdt.h **** 				"cbr %[TEMP_WD],%[WDVALUE]" "\n\t"
 414:/usr/lib/avr/include/avr/wdt.h **** 				"sts %[WDTREG],%[TEMP_WD]" "\n\t"
 415:/usr/lib/avr/include/avr/wdt.h **** 				"out __SREG__,__tmp_reg__" "\n\t"
 416:/usr/lib/avr/include/avr/wdt.h **** 				: /*no output */
 417:/usr/lib/avr/include/avr/wdt.h **** 				: [CCPADDRESS] "I" (_SFR_IO_ADDR(CCP)),
 418:/usr/lib/avr/include/avr/wdt.h **** 				[SIGNATURE] "r" ((uint8_t)0xD8),
 419:/usr/lib/avr/include/avr/wdt.h **** 				[WDTREG] "n" (_SFR_MEM_ADDR(_WD_CONTROL_REG)),
 420:/usr/lib/avr/include/avr/wdt.h **** 				[TEMP_WD] "d" (temp_wd),
 421:/usr/lib/avr/include/avr/wdt.h **** 				[WDVALUE] "n" (1 << WDE)
 422:/usr/lib/avr/include/avr/wdt.h **** 				: "r0"
 423:/usr/lib/avr/include/avr/wdt.h **** 				);
 424:/usr/lib/avr/include/avr/wdt.h **** 	}
 425:/usr/lib/avr/include/avr/wdt.h **** 	else
 426:/usr/lib/avr/include/avr/wdt.h **** 	{
 427:/usr/lib/avr/include/avr/wdt.h ****         uint8_t temp_wd;
 428:/usr/lib/avr/include/avr/wdt.h ****         __asm__ __volatile__ (
 429:/usr/lib/avr/include/avr/wdt.h **** 				"in __tmp_reg__,__SREG__" "\n\t"
 430:/usr/lib/avr/include/avr/wdt.h **** 				"cli" "\n\t"
 431:/usr/lib/avr/include/avr/wdt.h **** 				"wdr" "\n\t"
 432:/usr/lib/avr/include/avr/wdt.h **** 				"out %[CCPADDRESS],%[SIGNATURE]" "\n\t"
 433:/usr/lib/avr/include/avr/wdt.h **** 				"in %[TEMP_WD],%[WDTREG]" "\n\t"
 434:/usr/lib/avr/include/avr/wdt.h **** 				"cbr %[TEMP_WD],%[WDVALUE]" "\n\t"
 435:/usr/lib/avr/include/avr/wdt.h **** 				"out %[WDTREG],%[TEMP_WD]" "\n\t"
 436:/usr/lib/avr/include/avr/wdt.h **** 				"out __SREG__,__tmp_reg__" "\n\t"
 437:/usr/lib/avr/include/avr/wdt.h **** 				: /*no output */
 438:/usr/lib/avr/include/avr/wdt.h **** 				: [CCPADDRESS] "I" (_SFR_IO_ADDR(CCP)),
 439:/usr/lib/avr/include/avr/wdt.h **** 				[SIGNATURE] "r" ((uint8_t)0xD8),
 440:/usr/lib/avr/include/avr/wdt.h **** 				[WDTREG] "I" (_SFR_IO_ADDR(_WD_CONTROL_REG)),
 441:/usr/lib/avr/include/avr/wdt.h **** 				[TEMP_WD] "d" (temp_wd),
 442:/usr/lib/avr/include/avr/wdt.h **** 				[WDVALUE] "n" (1 << WDE)
 443:/usr/lib/avr/include/avr/wdt.h **** 				: "r0"
 444:/usr/lib/avr/include/avr/wdt.h **** 				);
 445:/usr/lib/avr/include/avr/wdt.h **** 	}
 446:/usr/lib/avr/include/avr/wdt.h **** }
 447:/usr/lib/avr/include/avr/wdt.h **** 
 448:/usr/lib/avr/include/avr/wdt.h **** #else
 449:/usr/lib/avr/include/avr/wdt.h **** 
 450:/usr/lib/avr/include/avr/wdt.h **** static __inline__
 451:/usr/lib/avr/include/avr/wdt.h **** __attribute__ ((__always_inline__))
 452:/usr/lib/avr/include/avr/wdt.h **** void wdt_enable (const uint8_t value)
 453:/usr/lib/avr/include/avr/wdt.h **** {
 454:/usr/lib/avr/include/avr/wdt.h **** 	if (_SFR_IO_REG_P (_WD_CONTROL_REG))
 455:/usr/lib/avr/include/avr/wdt.h **** 	{
 456:/usr/lib/avr/include/avr/wdt.h **** 		__asm__ __volatile__ (
 457:/usr/lib/avr/include/avr/wdt.h **** 				"in __tmp_reg__,__SREG__" "\n\t"
 458:/usr/lib/avr/include/avr/wdt.h **** 				"cli" "\n\t"
 459:/usr/lib/avr/include/avr/wdt.h **** 				"wdr" "\n\t"
 460:/usr/lib/avr/include/avr/wdt.h **** 				"out %0, %1" "\n\t"
 461:/usr/lib/avr/include/avr/wdt.h **** 				"out __SREG__,__tmp_reg__" "\n\t"
 462:/usr/lib/avr/include/avr/wdt.h **** 				"out %0, %2" "\n \t"
 463:/usr/lib/avr/include/avr/wdt.h **** 				: /* no outputs */
 464:/usr/lib/avr/include/avr/wdt.h **** 				: "I" (_SFR_IO_ADDR(_WD_CONTROL_REG)),
 465:/usr/lib/avr/include/avr/wdt.h **** 				"r" ((uint8_t)(_BV(_WD_CHANGE_BIT) | _BV(WDE))),
 466:/usr/lib/avr/include/avr/wdt.h **** 				"r" ((uint8_t) ((value & 0x08 ? _WD_PS3_MASK : 0x00) |
 467:/usr/lib/avr/include/avr/wdt.h **** 						_BV(WDE) | (value & 0x07)) )
 468:/usr/lib/avr/include/avr/wdt.h **** 				: "r0"
 469:/usr/lib/avr/include/avr/wdt.h **** 		);
 470:/usr/lib/avr/include/avr/wdt.h **** 	}
 471:/usr/lib/avr/include/avr/wdt.h **** 	else
 472:/usr/lib/avr/include/avr/wdt.h **** 	{
 473:/usr/lib/avr/include/avr/wdt.h **** 		__asm__ __volatile__ (
 474:/usr/lib/avr/include/avr/wdt.h **** 				"in __tmp_reg__,__SREG__" "\n\t"
 475:/usr/lib/avr/include/avr/wdt.h **** 				"cli" "\n\t"
 476:/usr/lib/avr/include/avr/wdt.h **** 				"wdr" "\n\t"
 477:/usr/lib/avr/include/avr/wdt.h **** 				"sts %0, %1" "\n\t"
 478:/usr/lib/avr/include/avr/wdt.h **** 				"out __SREG__,__tmp_reg__" "\n\t"
 479:/usr/lib/avr/include/avr/wdt.h **** 				"sts %0, %2" "\n \t"
 480:/usr/lib/avr/include/avr/wdt.h **** 				: /* no outputs */
 481:/usr/lib/avr/include/avr/wdt.h **** 				: "n" (_SFR_MEM_ADDR(_WD_CONTROL_REG)),
 482:/usr/lib/avr/include/avr/wdt.h **** 				"r" ((uint8_t)(_BV(_WD_CHANGE_BIT) | _BV(WDE))),
 483:/usr/lib/avr/include/avr/wdt.h **** 				"r" ((uint8_t) ((value & 0x08 ? _WD_PS3_MASK : 0x00) |
 484:/usr/lib/avr/include/avr/wdt.h **** 						_BV(WDE) | (value & 0x07)) )
 485:/usr/lib/avr/include/avr/wdt.h **** 				: "r0"
 486:/usr/lib/avr/include/avr/wdt.h **** 		);
 487:/usr/lib/avr/include/avr/wdt.h **** 	}
 488:/usr/lib/avr/include/avr/wdt.h **** }
 489:/usr/lib/avr/include/avr/wdt.h **** 
 490:/usr/lib/avr/include/avr/wdt.h **** static __inline__
 491:/usr/lib/avr/include/avr/wdt.h **** __attribute__ ((__always_inline__))
 492:/usr/lib/avr/include/avr/wdt.h **** void wdt_disable (void)
 493:/usr/lib/avr/include/avr/wdt.h **** {
 494:/usr/lib/avr/include/avr/wdt.h **** 	if (_SFR_IO_REG_P (_WD_CONTROL_REG))
 495:/usr/lib/avr/include/avr/wdt.h **** 	{
 496:/usr/lib/avr/include/avr/wdt.h ****         uint8_t register temp_reg;
 497:/usr/lib/avr/include/avr/wdt.h **** 		__asm__ __volatile__ (
 498:/usr/lib/avr/include/avr/wdt.h **** 				"in __tmp_reg__,__SREG__"    "\n\t"
 499:/usr/lib/avr/include/avr/wdt.h **** 				"cli"                        "\n\t"
 500:/usr/lib/avr/include/avr/wdt.h **** 				"wdr"                        "\n\t"
 501:/usr/lib/avr/include/avr/wdt.h **** 				"in  %[TEMPREG],%[WDTREG]"   "\n\t"
 502:/usr/lib/avr/include/avr/wdt.h **** 				"ori %[TEMPREG],%[WDCE_WDE]" "\n\t"
 503:/usr/lib/avr/include/avr/wdt.h **** 				"out %[WDTREG],%[TEMPREG]"   "\n\t"
 504:/usr/lib/avr/include/avr/wdt.h **** 				"out %[WDTREG],__zero_reg__" "\n\t"
 505:/usr/lib/avr/include/avr/wdt.h **** 				"out __SREG__,__tmp_reg__"   "\n\t"
 506:/usr/lib/avr/include/avr/wdt.h **** 				: [TEMPREG] "=d" (temp_reg)
 507:/usr/lib/avr/include/avr/wdt.h **** 				: [WDTREG]  "I"  (_SFR_IO_ADDR(_WD_CONTROL_REG)),
 508:/usr/lib/avr/include/avr/wdt.h **** 				[WDCE_WDE]  "n"  ((uint8_t)(_BV(_WD_CHANGE_BIT) | _BV(WDE)))
 509:/usr/lib/avr/include/avr/wdt.h **** 				: "r0"
 510:/usr/lib/avr/include/avr/wdt.h **** 		);
 511:/usr/lib/avr/include/avr/wdt.h **** 	}
 512:/usr/lib/avr/include/avr/wdt.h **** 	else
 513:/usr/lib/avr/include/avr/wdt.h **** 	{
 514:/usr/lib/avr/include/avr/wdt.h ****         uint8_t register temp_reg;
 515:/usr/lib/avr/include/avr/wdt.h **** 		__asm__ __volatile__ (
 807               		.loc 3 515 0
 808               	/* #APP */
 809               	 ;  515 "/usr/lib/avr/include/avr/wdt.h" 1
 810 0006 0FB6      		in __tmp_reg__,__SREG__
 811 0008 F894      		cli
 812 000a A895      		wdr
 813 000c 8091 6000 		lds r24,96
 814 0010 8861      		ori r24,24
 815 0012 8093 6000 		sts 96,r24
 816 0016 1092 6000 		sts 96,__zero_reg__
 817 001a 0FBE      		out __SREG__,__tmp_reg__
 818               		
 819               	 ;  0 "" 2
 820               	.LVL15:
 821               	/* #NOAPP */
 822               	.LBE26:
 823               	.LBE25:
 824               	.LBB27:
 825               	.LBB28:
 826               		.file 4 "/usr/lib/avr/include/avr/power.h"
   1:/usr/lib/avr/include/avr/power.h **** /* Copyright (c) 2006, 2007, 2008  Eric B. Weddington
   2:/usr/lib/avr/include/avr/power.h ****    Copyright (c) 2011 Frdric Nadeau
   3:/usr/lib/avr/include/avr/power.h ****    All rights reserved.
   4:/usr/lib/avr/include/avr/power.h **** 
   5:/usr/lib/avr/include/avr/power.h ****    Redistribution and use in source and binary forms, with or without
   6:/usr/lib/avr/include/avr/power.h ****    modification, are permitted provided that the following conditions are met:
   7:/usr/lib/avr/include/avr/power.h **** 
   8:/usr/lib/avr/include/avr/power.h ****    * Redistributions of source code must retain the above copyright
   9:/usr/lib/avr/include/avr/power.h ****      notice, this list of conditions and the following disclaimer.
  10:/usr/lib/avr/include/avr/power.h ****    * Redistributions in binary form must reproduce the above copyright
  11:/usr/lib/avr/include/avr/power.h ****      notice, this list of conditions and the following disclaimer in
  12:/usr/lib/avr/include/avr/power.h ****      the documentation and/or other materials provided with the
  13:/usr/lib/avr/include/avr/power.h ****      distribution.
  14:/usr/lib/avr/include/avr/power.h ****    * Neither the name of the copyright holders nor the names of
  15:/usr/lib/avr/include/avr/power.h ****      contributors may be used to endorse or promote products derived
  16:/usr/lib/avr/include/avr/power.h ****      from this software without specific prior written permission.
  17:/usr/lib/avr/include/avr/power.h **** 
  18:/usr/lib/avr/include/avr/power.h ****   THIS SOFTWARE IS PROVIDED BY THE COPYRIGHT HOLDERS AND CONTRIBUTORS "AS IS"
  19:/usr/lib/avr/include/avr/power.h ****   AND ANY EXPRESS OR IMPLIED WARRANTIES, INCLUDING, BUT NOT LIMITED TO, THE
  20:/usr/lib/avr/include/avr/power.h ****   IMPLIED WARRANTIES OF MERCHANTABILITY AND FITNESS FOR A PARTICULAR PURPOSE
  21:/usr/lib/avr/include/avr/power.h ****   ARE DISCLAIMED. IN NO EVENT SHALL THE COPYRIGHT OWNER OR CONTRIBUTORS BE
  22:/usr/lib/avr/include/avr/power.h ****   LIABLE FOR ANY DIRECT, INDIRECT, INCIDENTAL, SPECIAL, EXEMPLARY, OR
  23:/usr/lib/avr/include/avr/power.h ****   CONSEQUENTIAL DAMAGES (INCLUDING, BUT NOT LIMITED TO, PROCUREMENT OF
  24:/usr/lib/avr/include/avr/power.h ****   SUBSTITUTE GOODS OR SERVICES; LOSS OF USE, DATA, OR PROFITS; OR BUSINESS
  25:/usr/lib/avr/include/avr/power.h ****   INTERRUPTION) HOWEVER CAUSED AND ON ANY THEORY OF LIABILITY, WHETHER IN
  26:/usr/lib/avr/include/avr/power.h ****   CONTRACT, STRICT LIABILITY, OR TORT (INCLUDING NEGLIGENCE OR OTHERWISE)
  27:/usr/lib/avr/include/avr/power.h ****   ARISING IN ANY WAY OUT OF THE USE OF THIS SOFTWARE, EVEN IF ADVISED OF THE
  28:/usr/lib/avr/include/avr/power.h ****   POSSIBILITY OF SUCH DAMAGE. */
  29:/usr/lib/avr/include/avr/power.h **** 
  30:/usr/lib/avr/include/avr/power.h **** /* $Id$ */
  31:/usr/lib/avr/include/avr/power.h **** 
  32:/usr/lib/avr/include/avr/power.h **** #ifndef _AVR_POWER_H_
  33:/usr/lib/avr/include/avr/power.h **** #define _AVR_POWER_H_   1
  34:/usr/lib/avr/include/avr/power.h **** 
  35:/usr/lib/avr/include/avr/power.h **** #include <avr/io.h>
  36:/usr/lib/avr/include/avr/power.h **** #include <stdint.h>
  37:/usr/lib/avr/include/avr/power.h **** 
  38:/usr/lib/avr/include/avr/power.h **** 
  39:/usr/lib/avr/include/avr/power.h **** /** \file */
  40:/usr/lib/avr/include/avr/power.h **** /** \defgroup avr_power <avr/power.h>: Power Reduction Management
  41:/usr/lib/avr/include/avr/power.h **** 
  42:/usr/lib/avr/include/avr/power.h **** \code #include <avr/power.h>\endcode
  43:/usr/lib/avr/include/avr/power.h **** 
  44:/usr/lib/avr/include/avr/power.h **** Many AVRs contain a Power Reduction Register (PRR) or Registers (PRRx) that 
  45:/usr/lib/avr/include/avr/power.h **** allow you to reduce power consumption by disabling or enabling various on-board 
  46:/usr/lib/avr/include/avr/power.h **** peripherals as needed. Some devices have the XTAL Divide Control Register
  47:/usr/lib/avr/include/avr/power.h **** (XDIV) which offer similar functionality as System Clock Prescale
  48:/usr/lib/avr/include/avr/power.h **** Register (CLKPR).
  49:/usr/lib/avr/include/avr/power.h **** 
  50:/usr/lib/avr/include/avr/power.h **** There are many macros in this header file that provide an easy interface
  51:/usr/lib/avr/include/avr/power.h **** to enable or disable on-board peripherals to reduce power. See the table below.
  52:/usr/lib/avr/include/avr/power.h **** 
  53:/usr/lib/avr/include/avr/power.h **** \note Not all AVR devices have a Power Reduction Register (for example
  54:/usr/lib/avr/include/avr/power.h **** the ATmega8). On those devices without a Power Reduction Register, the
  55:/usr/lib/avr/include/avr/power.h **** power reduction macros are not available..
  56:/usr/lib/avr/include/avr/power.h **** 
  57:/usr/lib/avr/include/avr/power.h **** \note Not all AVR devices contain the same peripherals (for example, the LCD
  58:/usr/lib/avr/include/avr/power.h **** interface), or they will be named differently (for example, USART and 
  59:/usr/lib/avr/include/avr/power.h **** USART0). Please consult your device's datasheet, or the header file, to 
  60:/usr/lib/avr/include/avr/power.h **** find out which macros are applicable to your device.
  61:/usr/lib/avr/include/avr/power.h **** 
  62:/usr/lib/avr/include/avr/power.h **** \note For device using the XTAL Divide Control Register (XDIV), when prescaler
  63:/usr/lib/avr/include/avr/power.h **** is used, Timer/Counter0 can only be used in asynchronous mode. Keep in mind
  64:/usr/lib/avr/include/avr/power.h **** that Timer/Counter0 source shall be less than th of peripheral clock.
  65:/usr/lib/avr/include/avr/power.h **** Therefore, when using a typical 32.768 kHz crystal, one shall not scale
  66:/usr/lib/avr/include/avr/power.h **** the clock below 131.072 kHz.
  67:/usr/lib/avr/include/avr/power.h **** 
  68:/usr/lib/avr/include/avr/power.h **** */
  69:/usr/lib/avr/include/avr/power.h **** 
  70:/usr/lib/avr/include/avr/power.h **** 
  71:/usr/lib/avr/include/avr/power.h **** /** \addtogroup avr_power
  72:/usr/lib/avr/include/avr/power.h **** 
  73:/usr/lib/avr/include/avr/power.h **** \anchor avr_powermacros
  74:/usr/lib/avr/include/avr/power.h **** <small>
  75:/usr/lib/avr/include/avr/power.h **** <center>
  76:/usr/lib/avr/include/avr/power.h **** <table border="3">
  77:/usr/lib/avr/include/avr/power.h ****   <tr>
  78:/usr/lib/avr/include/avr/power.h ****     <td width="10%"><strong>Power Macro</strong></td>
  79:/usr/lib/avr/include/avr/power.h ****     <td width="15%"><strong>Description</strong></td>
  80:/usr/lib/avr/include/avr/power.h ****   </tr>
  81:/usr/lib/avr/include/avr/power.h **** 
  82:/usr/lib/avr/include/avr/power.h ****   <tr>
  83:/usr/lib/avr/include/avr/power.h ****     <td>power_aca_disable()</td>
  84:/usr/lib/avr/include/avr/power.h ****     <td>Disable the Analog Comparator on PortA.</td>
  85:/usr/lib/avr/include/avr/power.h ****   </tr>
  86:/usr/lib/avr/include/avr/power.h **** 
  87:/usr/lib/avr/include/avr/power.h ****   <tr>
  88:/usr/lib/avr/include/avr/power.h ****     <td>power_aca_enable()</td>
  89:/usr/lib/avr/include/avr/power.h ****     <td>Enable the Analog Comparator on PortA.</td>
  90:/usr/lib/avr/include/avr/power.h ****   </tr>
  91:/usr/lib/avr/include/avr/power.h **** 
  92:/usr/lib/avr/include/avr/power.h ****   <tr>
  93:/usr/lib/avr/include/avr/power.h ****     <td>power_adc_enable()</td>
  94:/usr/lib/avr/include/avr/power.h ****     <td>Enable the Analog to Digital Converter module.</td>
  95:/usr/lib/avr/include/avr/power.h ****   </tr>
  96:/usr/lib/avr/include/avr/power.h **** 
  97:/usr/lib/avr/include/avr/power.h ****   <tr>
  98:/usr/lib/avr/include/avr/power.h ****     <td>power_adc_disable()</td>
  99:/usr/lib/avr/include/avr/power.h ****     <td>Disable the Analog to Digital Converter module.</td>
 100:/usr/lib/avr/include/avr/power.h ****   </tr>
 101:/usr/lib/avr/include/avr/power.h **** 
 102:/usr/lib/avr/include/avr/power.h ****   <tr>
 103:/usr/lib/avr/include/avr/power.h ****     <td>power_adca_disable()</td>
 104:/usr/lib/avr/include/avr/power.h ****     <td>Disable the Analog to Digital Converter module on PortA</td>
 105:/usr/lib/avr/include/avr/power.h ****   </tr>
 106:/usr/lib/avr/include/avr/power.h **** 
 107:/usr/lib/avr/include/avr/power.h ****   <tr>
 108:/usr/lib/avr/include/avr/power.h ****     <td>power_adca_enable()</td>
 109:/usr/lib/avr/include/avr/power.h ****     <td>Enable the Analog to Digital Converter module on PortA</td>
 110:/usr/lib/avr/include/avr/power.h ****   </tr>
 111:/usr/lib/avr/include/avr/power.h **** 
 112:/usr/lib/avr/include/avr/power.h ****   <tr>
 113:/usr/lib/avr/include/avr/power.h ****     <td>power_evsys_disable()</td>
 114:/usr/lib/avr/include/avr/power.h ****     <td>Disable the EVSYS module</td>
 115:/usr/lib/avr/include/avr/power.h ****   </tr>
 116:/usr/lib/avr/include/avr/power.h **** 
 117:/usr/lib/avr/include/avr/power.h ****   <tr>
 118:/usr/lib/avr/include/avr/power.h ****     <td>power_evsys_enable()</td>
 119:/usr/lib/avr/include/avr/power.h ****     <td>Enable the EVSYS module</td>
 120:/usr/lib/avr/include/avr/power.h ****   </tr>
 121:/usr/lib/avr/include/avr/power.h **** 
 122:/usr/lib/avr/include/avr/power.h ****   <tr>
 123:/usr/lib/avr/include/avr/power.h ****     <td>power_hiresc_disable()</td>
 124:/usr/lib/avr/include/avr/power.h ****     <td>Disable the HIRES module on PortC</td>
 125:/usr/lib/avr/include/avr/power.h ****   </tr>
 126:/usr/lib/avr/include/avr/power.h **** 
 127:/usr/lib/avr/include/avr/power.h ****   <tr>
 128:/usr/lib/avr/include/avr/power.h ****     <td>power_hiresc_enable()</td>
 129:/usr/lib/avr/include/avr/power.h ****     <td>Enable the HIRES module on PortC</td>
 130:/usr/lib/avr/include/avr/power.h ****   </tr>
 131:/usr/lib/avr/include/avr/power.h **** 
 132:/usr/lib/avr/include/avr/power.h ****    <tr>
 133:/usr/lib/avr/include/avr/power.h ****     <td>power_lcd_enable()</td>
 134:/usr/lib/avr/include/avr/power.h ****     <td>Enable the LCD module.</td>
 135:/usr/lib/avr/include/avr/power.h ****   </tr>
 136:/usr/lib/avr/include/avr/power.h **** 
 137:/usr/lib/avr/include/avr/power.h ****   <tr>
 138:/usr/lib/avr/include/avr/power.h ****     <td>power_lcd_disable().</td>
 139:/usr/lib/avr/include/avr/power.h ****     <td>Disable the LCD module.</td>
 140:/usr/lib/avr/include/avr/power.h ****   </tr>
 141:/usr/lib/avr/include/avr/power.h **** 
 142:/usr/lib/avr/include/avr/power.h ****   <tr>
 143:/usr/lib/avr/include/avr/power.h ****     <td>power_pga_enable()</td>
 144:/usr/lib/avr/include/avr/power.h ****     <td>Enable the Programmable Gain Amplifier module.</td>
 145:/usr/lib/avr/include/avr/power.h ****   </tr>
 146:/usr/lib/avr/include/avr/power.h **** 
 147:/usr/lib/avr/include/avr/power.h ****   <tr>
 148:/usr/lib/avr/include/avr/power.h ****     <td>power_pga_disable()</td>
 149:/usr/lib/avr/include/avr/power.h ****     <td>Disable the Programmable Gain Amplifier module.</td>
 150:/usr/lib/avr/include/avr/power.h ****   </tr>
 151:/usr/lib/avr/include/avr/power.h ****   
 152:/usr/lib/avr/include/avr/power.h ****   <tr>
 153:/usr/lib/avr/include/avr/power.h ****     <td>power_pscr_enable()</td>
 154:/usr/lib/avr/include/avr/power.h ****     <td>Enable the Reduced Power Stage Controller module.</td>
 155:/usr/lib/avr/include/avr/power.h ****   </tr>
 156:/usr/lib/avr/include/avr/power.h **** 
 157:/usr/lib/avr/include/avr/power.h ****   <tr>
 158:/usr/lib/avr/include/avr/power.h ****     <td>power_pscr_disable()</td>
 159:/usr/lib/avr/include/avr/power.h ****     <td>Disable the Reduced Power Stage Controller module.</td>
 160:/usr/lib/avr/include/avr/power.h ****   </tr>
 161:/usr/lib/avr/include/avr/power.h **** 
 162:/usr/lib/avr/include/avr/power.h ****   <tr>
 163:/usr/lib/avr/include/avr/power.h ****     <td>power_psc0_enable()</td>
 164:/usr/lib/avr/include/avr/power.h ****     <td>Enable the Power Stage Controller 0 module.</td>
 165:/usr/lib/avr/include/avr/power.h ****   </tr>
 166:/usr/lib/avr/include/avr/power.h **** 
 167:/usr/lib/avr/include/avr/power.h ****   <tr>
 168:/usr/lib/avr/include/avr/power.h ****     <td>power_psc0_disable()</td>
 169:/usr/lib/avr/include/avr/power.h ****     <td>Disable the Power Stage Controller 0 module.</td>
 170:/usr/lib/avr/include/avr/power.h ****   </tr>
 171:/usr/lib/avr/include/avr/power.h **** 
 172:/usr/lib/avr/include/avr/power.h ****   <tr>
 173:/usr/lib/avr/include/avr/power.h ****     <td>power_psc1_enable()</td>
 174:/usr/lib/avr/include/avr/power.h ****     <td>Enable the Power Stage Controller 1 module.</td>
 175:/usr/lib/avr/include/avr/power.h ****   </tr>
 176:/usr/lib/avr/include/avr/power.h **** 
 177:/usr/lib/avr/include/avr/power.h ****   <tr>
 178:/usr/lib/avr/include/avr/power.h ****     <td>power_psc1_disable()</td>
 179:/usr/lib/avr/include/avr/power.h ****     <td>Disable the Power Stage Controller 1 module.</td>
 180:/usr/lib/avr/include/avr/power.h ****   </tr>
 181:/usr/lib/avr/include/avr/power.h **** 
 182:/usr/lib/avr/include/avr/power.h ****   <tr>
 183:/usr/lib/avr/include/avr/power.h ****     <td>power_psc2_enable()</td>
 184:/usr/lib/avr/include/avr/power.h ****     <td>Enable the Power Stage Controller 2 module.</td>
 185:/usr/lib/avr/include/avr/power.h ****   </tr>
 186:/usr/lib/avr/include/avr/power.h **** 
 187:/usr/lib/avr/include/avr/power.h ****   <tr>
 188:/usr/lib/avr/include/avr/power.h ****     <td>power_psc2_disable()</td>
 189:/usr/lib/avr/include/avr/power.h ****     <td>Disable the Power Stage Controller 2 module.</td>
 190:/usr/lib/avr/include/avr/power.h ****   </tr>
 191:/usr/lib/avr/include/avr/power.h **** 
 192:/usr/lib/avr/include/avr/power.h ****   <tr>
 193:/usr/lib/avr/include/avr/power.h ****     <td>power_ram0_enable()</td>
 194:/usr/lib/avr/include/avr/power.h ****     <td>Enable the SRAM block 0 .</td>
 195:/usr/lib/avr/include/avr/power.h ****   </tr>
 196:/usr/lib/avr/include/avr/power.h **** 
 197:/usr/lib/avr/include/avr/power.h ****   <tr>
 198:/usr/lib/avr/include/avr/power.h ****     <td>power_ram0_disable()</td>
 199:/usr/lib/avr/include/avr/power.h ****     <td>Disable the SRAM block 0. </td>
 200:/usr/lib/avr/include/avr/power.h ****   </tr>
 201:/usr/lib/avr/include/avr/power.h **** 
 202:/usr/lib/avr/include/avr/power.h ****   <tr>
 203:/usr/lib/avr/include/avr/power.h ****     <td>power_ram1_enable()</td>
 204:/usr/lib/avr/include/avr/power.h ****     <td>Enable the SRAM block 1 .</td>
 205:/usr/lib/avr/include/avr/power.h ****   </tr>
 206:/usr/lib/avr/include/avr/power.h **** 
 207:/usr/lib/avr/include/avr/power.h ****   <tr>
 208:/usr/lib/avr/include/avr/power.h ****     <td>power_ram1_disable()</td>
 209:/usr/lib/avr/include/avr/power.h ****     <td>Disable the SRAM block 1. </td>
 210:/usr/lib/avr/include/avr/power.h ****   </tr>
 211:/usr/lib/avr/include/avr/power.h **** 
 212:/usr/lib/avr/include/avr/power.h ****   <tr>
 213:/usr/lib/avr/include/avr/power.h ****     <td>power_ram2_enable()</td>
 214:/usr/lib/avr/include/avr/power.h ****     <td>Enable the SRAM block 2 .</td>
 215:/usr/lib/avr/include/avr/power.h ****   </tr>
 216:/usr/lib/avr/include/avr/power.h **** 
 217:/usr/lib/avr/include/avr/power.h ****   <tr>
 218:/usr/lib/avr/include/avr/power.h ****     <td>power_ram2_disable()</td>
 219:/usr/lib/avr/include/avr/power.h ****     <td>Disable the SRAM block 2. </td>
 220:/usr/lib/avr/include/avr/power.h ****   </tr>
 221:/usr/lib/avr/include/avr/power.h **** 
 222:/usr/lib/avr/include/avr/power.h ****   <tr>
 223:/usr/lib/avr/include/avr/power.h ****     <td>power_ram3_enable()</td>
 224:/usr/lib/avr/include/avr/power.h ****     <td>Enable the SRAM block 3 .</td>
 225:/usr/lib/avr/include/avr/power.h ****   </tr>
 226:/usr/lib/avr/include/avr/power.h **** 
 227:/usr/lib/avr/include/avr/power.h ****   <tr>
 228:/usr/lib/avr/include/avr/power.h ****     <td>power_ram3_disable()</td>
 229:/usr/lib/avr/include/avr/power.h ****     <td>Disable the SRAM block 3. </td>
 230:/usr/lib/avr/include/avr/power.h ****   </tr>
 231:/usr/lib/avr/include/avr/power.h **** 
 232:/usr/lib/avr/include/avr/power.h ****   <tr>
 233:/usr/lib/avr/include/avr/power.h ****     <td>power_rtc_disable()</td>
 234:/usr/lib/avr/include/avr/power.h ****     <td>Disable the RTC module</td>
 235:/usr/lib/avr/include/avr/power.h ****   </tr>
 236:/usr/lib/avr/include/avr/power.h **** 
 237:/usr/lib/avr/include/avr/power.h ****   <tr>
 238:/usr/lib/avr/include/avr/power.h ****     <td>power_rtc_enable()</td>
 239:/usr/lib/avr/include/avr/power.h ****     <td>Enable the RTC module</td>
 240:/usr/lib/avr/include/avr/power.h ****   </tr>
 241:/usr/lib/avr/include/avr/power.h **** 
 242:/usr/lib/avr/include/avr/power.h ****   <tr>
 243:/usr/lib/avr/include/avr/power.h ****     <td>power_spi_enable()</td>
 244:/usr/lib/avr/include/avr/power.h ****     <td>Enable the Serial Peripheral Interface module.</td>
 245:/usr/lib/avr/include/avr/power.h ****   </tr>
 246:/usr/lib/avr/include/avr/power.h **** 
 247:/usr/lib/avr/include/avr/power.h ****   <tr>
 248:/usr/lib/avr/include/avr/power.h ****     <td>power_spi_disable()</td>
 249:/usr/lib/avr/include/avr/power.h ****     <td>Disable the Serial Peripheral Interface module.</td>
 250:/usr/lib/avr/include/avr/power.h ****   </tr>
 251:/usr/lib/avr/include/avr/power.h **** 
 252:/usr/lib/avr/include/avr/power.h ****   <tr>
 253:/usr/lib/avr/include/avr/power.h ****     <td>power_spic_disable()</td>
 254:/usr/lib/avr/include/avr/power.h ****     <td>Disable the SPI module on PortC</td>
 255:/usr/lib/avr/include/avr/power.h ****   </tr>
 256:/usr/lib/avr/include/avr/power.h **** 
 257:/usr/lib/avr/include/avr/power.h ****   <tr>
 258:/usr/lib/avr/include/avr/power.h ****     <td>power_spic_enable()</td>
 259:/usr/lib/avr/include/avr/power.h ****     <td>Enable the SPI module on PortC</td>
 260:/usr/lib/avr/include/avr/power.h ****   </tr>
 261:/usr/lib/avr/include/avr/power.h **** 
 262:/usr/lib/avr/include/avr/power.h ****   <tr>
 263:/usr/lib/avr/include/avr/power.h ****     <td>power_spid_disable()</td>
 264:/usr/lib/avr/include/avr/power.h ****     <td>Disable the SPI module on PortD</td>
 265:/usr/lib/avr/include/avr/power.h ****   </tr>
 266:/usr/lib/avr/include/avr/power.h **** 
 267:/usr/lib/avr/include/avr/power.h ****   <tr>
 268:/usr/lib/avr/include/avr/power.h ****     <td>power_spid_enable()</td>
 269:/usr/lib/avr/include/avr/power.h ****     <td>Enable the SPI module on PortD</td>
 270:/usr/lib/avr/include/avr/power.h ****   </tr>
 271:/usr/lib/avr/include/avr/power.h **** 
 272:/usr/lib/avr/include/avr/power.h ****   <tr>
 273:/usr/lib/avr/include/avr/power.h ****     <td>power_tc0c_disable()</td>
 274:/usr/lib/avr/include/avr/power.h ****     <td>Disable the TC0 module on PortC</td>
 275:/usr/lib/avr/include/avr/power.h ****   </tr>
 276:/usr/lib/avr/include/avr/power.h **** 
 277:/usr/lib/avr/include/avr/power.h ****   <tr>
 278:/usr/lib/avr/include/avr/power.h ****     <td>power_tc0c_enable()</td>
 279:/usr/lib/avr/include/avr/power.h ****     <td>Enable the TC0 module on PortC</td>
 280:/usr/lib/avr/include/avr/power.h ****   </tr>
 281:/usr/lib/avr/include/avr/power.h **** 
 282:/usr/lib/avr/include/avr/power.h ****   <tr>
 283:/usr/lib/avr/include/avr/power.h ****     <td>power_tc0d_disable()</td>
 284:/usr/lib/avr/include/avr/power.h ****     <td>Disable the TC0 module on PortD</td>
 285:/usr/lib/avr/include/avr/power.h ****   </tr>
 286:/usr/lib/avr/include/avr/power.h **** 
 287:/usr/lib/avr/include/avr/power.h ****   <tr>
 288:/usr/lib/avr/include/avr/power.h ****     <td>power_tc0d_enable()</td>
 289:/usr/lib/avr/include/avr/power.h ****     <td>Enable the TC0 module on PortD</td>
 290:/usr/lib/avr/include/avr/power.h ****   </tr>
 291:/usr/lib/avr/include/avr/power.h **** 
 292:/usr/lib/avr/include/avr/power.h ****   <tr>
 293:/usr/lib/avr/include/avr/power.h ****     <td>power_tc0e_disable()</td>
 294:/usr/lib/avr/include/avr/power.h ****     <td>Disable the TC0 module on PortE</td>
 295:/usr/lib/avr/include/avr/power.h ****   </tr>
 296:/usr/lib/avr/include/avr/power.h **** 
 297:/usr/lib/avr/include/avr/power.h ****   <tr>
 298:/usr/lib/avr/include/avr/power.h ****     <td>power_tc0e_enable()</td>
 299:/usr/lib/avr/include/avr/power.h ****     <td>Enable the TC0 module on PortE</td>
 300:/usr/lib/avr/include/avr/power.h ****   </tr>
 301:/usr/lib/avr/include/avr/power.h **** 
 302:/usr/lib/avr/include/avr/power.h ****   <tr>
 303:/usr/lib/avr/include/avr/power.h ****     <td>power_tc0f_disable()</td>
 304:/usr/lib/avr/include/avr/power.h ****     <td>Disable the TC0 module on PortF</td>
 305:/usr/lib/avr/include/avr/power.h ****   </tr>
 306:/usr/lib/avr/include/avr/power.h **** 
 307:/usr/lib/avr/include/avr/power.h ****   <tr>
 308:/usr/lib/avr/include/avr/power.h ****     <td>power_tc0f_enable()</td>
 309:/usr/lib/avr/include/avr/power.h ****     <td>Enable the TC0 module on PortF</td>
 310:/usr/lib/avr/include/avr/power.h ****   </tr>
 311:/usr/lib/avr/include/avr/power.h **** 
 312:/usr/lib/avr/include/avr/power.h ****   <tr>
 313:/usr/lib/avr/include/avr/power.h ****     <td>power_tc1c_disable()</td>
 314:/usr/lib/avr/include/avr/power.h ****     <td>Disable the TC1 module on PortC</td>
 315:/usr/lib/avr/include/avr/power.h ****   </tr>
 316:/usr/lib/avr/include/avr/power.h **** 
 317:/usr/lib/avr/include/avr/power.h ****   <tr>
 318:/usr/lib/avr/include/avr/power.h ****     <td>power_tc1c_enable()</td>
 319:/usr/lib/avr/include/avr/power.h ****     <td>Enable the TC1 module on PortC</td>
 320:/usr/lib/avr/include/avr/power.h ****   </tr>
 321:/usr/lib/avr/include/avr/power.h **** 
 322:/usr/lib/avr/include/avr/power.h ****   <tr>
 323:/usr/lib/avr/include/avr/power.h ****     <td>power_twic_disable()</td>
 324:/usr/lib/avr/include/avr/power.h ****     <td>Disable the Two Wire Interface module on PortC</td>
 325:/usr/lib/avr/include/avr/power.h ****   </tr>
 326:/usr/lib/avr/include/avr/power.h **** 
 327:/usr/lib/avr/include/avr/power.h ****   <tr>
 328:/usr/lib/avr/include/avr/power.h ****     <td>power_twic_enable()</td>
 329:/usr/lib/avr/include/avr/power.h ****     <td>Enable the Two Wire Interface module on PortC</td>
 330:/usr/lib/avr/include/avr/power.h ****   </tr>
 331:/usr/lib/avr/include/avr/power.h **** 
 332:/usr/lib/avr/include/avr/power.h ****   <tr>
 333:/usr/lib/avr/include/avr/power.h ****     <td>power_twie_disable()</td>
 334:/usr/lib/avr/include/avr/power.h ****     <td>Disable the Two Wire Interface module on PortE</td>
 335:/usr/lib/avr/include/avr/power.h ****   </tr>
 336:/usr/lib/avr/include/avr/power.h **** 
 337:/usr/lib/avr/include/avr/power.h ****   <tr>
 338:/usr/lib/avr/include/avr/power.h ****     <td>power_twie_enable()</td>
 339:/usr/lib/avr/include/avr/power.h ****     <td>Enable the Two Wire Interface module on PortE</td>
 340:/usr/lib/avr/include/avr/power.h ****   </tr>
 341:/usr/lib/avr/include/avr/power.h **** 
 342:/usr/lib/avr/include/avr/power.h ****   <tr>
 343:/usr/lib/avr/include/avr/power.h ****     <td>power_timer0_enable()</td>
 344:/usr/lib/avr/include/avr/power.h ****     <td>Enable the Timer 0 module.</td>
 345:/usr/lib/avr/include/avr/power.h ****   </tr>
 346:/usr/lib/avr/include/avr/power.h **** 
 347:/usr/lib/avr/include/avr/power.h ****   <tr>
 348:/usr/lib/avr/include/avr/power.h ****     <td>power_timer0_disable()</td>
 349:/usr/lib/avr/include/avr/power.h ****     <td>Disable the Timer 0 module.</td>
 350:/usr/lib/avr/include/avr/power.h ****   </tr>
 351:/usr/lib/avr/include/avr/power.h **** 
 352:/usr/lib/avr/include/avr/power.h ****   <tr>
 353:/usr/lib/avr/include/avr/power.h ****     <td>power_timer1_enable()</td>
 354:/usr/lib/avr/include/avr/power.h ****     <td>Enable the Timer 1 module.</td>
 355:/usr/lib/avr/include/avr/power.h ****   </tr>
 356:/usr/lib/avr/include/avr/power.h **** 
 357:/usr/lib/avr/include/avr/power.h ****   <tr>
 358:/usr/lib/avr/include/avr/power.h ****     <td>power_timer1_disable()</td>
 359:/usr/lib/avr/include/avr/power.h ****     <td>Disable the Timer 1 module.</td>
 360:/usr/lib/avr/include/avr/power.h ****   </tr>
 361:/usr/lib/avr/include/avr/power.h **** 
 362:/usr/lib/avr/include/avr/power.h ****   <tr>
 363:/usr/lib/avr/include/avr/power.h ****     <td>power_timer2_enable()</td>
 364:/usr/lib/avr/include/avr/power.h ****     <td>Enable the Timer 2 module.</td>
 365:/usr/lib/avr/include/avr/power.h ****   </tr>
 366:/usr/lib/avr/include/avr/power.h **** 
 367:/usr/lib/avr/include/avr/power.h ****   <tr>
 368:/usr/lib/avr/include/avr/power.h ****     <td>power_timer2_disable()</td>
 369:/usr/lib/avr/include/avr/power.h ****     <td>Disable the Timer 2 module.</td>
 370:/usr/lib/avr/include/avr/power.h ****   </tr>
 371:/usr/lib/avr/include/avr/power.h **** 
 372:/usr/lib/avr/include/avr/power.h ****   <tr>
 373:/usr/lib/avr/include/avr/power.h ****     <td>power_timer3_enable()</td>
 374:/usr/lib/avr/include/avr/power.h ****     <td>Enable the Timer 3 module.</td>
 375:/usr/lib/avr/include/avr/power.h ****   </tr>
 376:/usr/lib/avr/include/avr/power.h **** 
 377:/usr/lib/avr/include/avr/power.h ****   <tr>
 378:/usr/lib/avr/include/avr/power.h ****     <td>power_timer3_disable()</td>
 379:/usr/lib/avr/include/avr/power.h ****     <td>Disable the Timer 3 module.</td>
 380:/usr/lib/avr/include/avr/power.h ****   </tr>
 381:/usr/lib/avr/include/avr/power.h **** 
 382:/usr/lib/avr/include/avr/power.h ****   <tr>
 383:/usr/lib/avr/include/avr/power.h ****     <td>power_timer4_enable()</td>
 384:/usr/lib/avr/include/avr/power.h ****     <td>Enable the Timer 4 module.</td>
 385:/usr/lib/avr/include/avr/power.h ****   </tr>
 386:/usr/lib/avr/include/avr/power.h **** 
 387:/usr/lib/avr/include/avr/power.h ****   <tr>
 388:/usr/lib/avr/include/avr/power.h ****     <td>power_timer4_disable()</td>
 389:/usr/lib/avr/include/avr/power.h ****     <td>Disable the Timer 4 module.</td>
 390:/usr/lib/avr/include/avr/power.h ****   </tr>
 391:/usr/lib/avr/include/avr/power.h **** 
 392:/usr/lib/avr/include/avr/power.h ****   <tr>
 393:/usr/lib/avr/include/avr/power.h ****     <td>power_timer5_enable()</td>
 394:/usr/lib/avr/include/avr/power.h ****     <td>Enable the Timer 5 module.</td>
 395:/usr/lib/avr/include/avr/power.h ****   </tr>
 396:/usr/lib/avr/include/avr/power.h **** 
 397:/usr/lib/avr/include/avr/power.h ****   <tr>
 398:/usr/lib/avr/include/avr/power.h ****     <td>power_timer5_disable()</td>
 399:/usr/lib/avr/include/avr/power.h ****     <td>Disable the Timer 5 module.</td>
 400:/usr/lib/avr/include/avr/power.h ****   </tr>
 401:/usr/lib/avr/include/avr/power.h **** 
 402:/usr/lib/avr/include/avr/power.h ****   <tr>
 403:/usr/lib/avr/include/avr/power.h ****     <td>power_twi_enable()</td>
 404:/usr/lib/avr/include/avr/power.h ****     <td>Enable the Two Wire Interface module.</td>
 405:/usr/lib/avr/include/avr/power.h ****   </tr>
 406:/usr/lib/avr/include/avr/power.h **** 
 407:/usr/lib/avr/include/avr/power.h ****   <tr>
 408:/usr/lib/avr/include/avr/power.h ****     <td>power_twi_disable()</td>
 409:/usr/lib/avr/include/avr/power.h ****     <td>Disable the Two Wire Interface module.</td>
 410:/usr/lib/avr/include/avr/power.h ****   </tr>
 411:/usr/lib/avr/include/avr/power.h **** 
 412:/usr/lib/avr/include/avr/power.h ****   <tr>
 413:/usr/lib/avr/include/avr/power.h ****     <td>power_usart_enable()</td>
 414:/usr/lib/avr/include/avr/power.h ****     <td>Enable the USART module.</td>
 415:/usr/lib/avr/include/avr/power.h ****   </tr>
 416:/usr/lib/avr/include/avr/power.h **** 
 417:/usr/lib/avr/include/avr/power.h ****   <tr>
 418:/usr/lib/avr/include/avr/power.h ****     <td>power_usart_disable()</td>
 419:/usr/lib/avr/include/avr/power.h ****     <td>Disable the USART module.</td>
 420:/usr/lib/avr/include/avr/power.h ****   </tr>
 421:/usr/lib/avr/include/avr/power.h **** 
 422:/usr/lib/avr/include/avr/power.h ****   <tr>
 423:/usr/lib/avr/include/avr/power.h ****     <td>power_usart0_enable()</td>
 424:/usr/lib/avr/include/avr/power.h ****     <td>Enable the USART 0 module.</td>
 425:/usr/lib/avr/include/avr/power.h ****   </tr>
 426:/usr/lib/avr/include/avr/power.h **** 
 427:/usr/lib/avr/include/avr/power.h ****   <tr>
 428:/usr/lib/avr/include/avr/power.h ****     <td>power_usart0_disable()</td>
 429:/usr/lib/avr/include/avr/power.h ****     <td>Disable the USART 0 module.</td>
 430:/usr/lib/avr/include/avr/power.h ****   </tr>
 431:/usr/lib/avr/include/avr/power.h **** 
 432:/usr/lib/avr/include/avr/power.h ****   <tr>
 433:/usr/lib/avr/include/avr/power.h ****     <td>power_usart1_enable()</td>
 434:/usr/lib/avr/include/avr/power.h ****     <td>Enable the USART 1 module.</td>
 435:/usr/lib/avr/include/avr/power.h ****   </tr>
 436:/usr/lib/avr/include/avr/power.h **** 
 437:/usr/lib/avr/include/avr/power.h ****   <tr>
 438:/usr/lib/avr/include/avr/power.h ****     <td>power_usart1_disable()</td>
 439:/usr/lib/avr/include/avr/power.h ****     <td>Disable the USART 1 module.</td>
 440:/usr/lib/avr/include/avr/power.h ****   </tr>
 441:/usr/lib/avr/include/avr/power.h **** 
 442:/usr/lib/avr/include/avr/power.h ****   <tr>
 443:/usr/lib/avr/include/avr/power.h ****     <td>power_usart2_enable()</td>
 444:/usr/lib/avr/include/avr/power.h ****     <td>Enable the USART 2 module.</td>
 445:/usr/lib/avr/include/avr/power.h ****   </tr>
 446:/usr/lib/avr/include/avr/power.h **** 
 447:/usr/lib/avr/include/avr/power.h ****   <tr>
 448:/usr/lib/avr/include/avr/power.h ****     <td>power_usart2_disable()</td>
 449:/usr/lib/avr/include/avr/power.h ****     <td>Disable the USART 2 module.</td>
 450:/usr/lib/avr/include/avr/power.h ****   </tr>
 451:/usr/lib/avr/include/avr/power.h **** 
 452:/usr/lib/avr/include/avr/power.h ****   <tr>
 453:/usr/lib/avr/include/avr/power.h ****     <td>power_usart3_enable()</td>
 454:/usr/lib/avr/include/avr/power.h ****     <td>Enable the USART 3 module.</td>
 455:/usr/lib/avr/include/avr/power.h ****   </tr>
 456:/usr/lib/avr/include/avr/power.h **** 
 457:/usr/lib/avr/include/avr/power.h ****   <tr>
 458:/usr/lib/avr/include/avr/power.h ****     <td>power_usart3_disable()</td>
 459:/usr/lib/avr/include/avr/power.h ****     <td>Disable the USART 3 module.</td>
 460:/usr/lib/avr/include/avr/power.h ****   </tr>
 461:/usr/lib/avr/include/avr/power.h **** 
 462:/usr/lib/avr/include/avr/power.h ****   <tr>
 463:/usr/lib/avr/include/avr/power.h ****     <td>power_usartc0_disable()</td>
 464:/usr/lib/avr/include/avr/power.h ****     <td> Disable the USART0 module on PortC</td>
 465:/usr/lib/avr/include/avr/power.h ****   </tr>
 466:/usr/lib/avr/include/avr/power.h **** 
 467:/usr/lib/avr/include/avr/power.h ****   <tr>
 468:/usr/lib/avr/include/avr/power.h ****     <td>power_usartc0_enable()</td>
 469:/usr/lib/avr/include/avr/power.h ****     <td> Enable the USART0 module on PortC</td>
 470:/usr/lib/avr/include/avr/power.h ****   </tr>
 471:/usr/lib/avr/include/avr/power.h **** 
 472:/usr/lib/avr/include/avr/power.h ****   <tr>
 473:/usr/lib/avr/include/avr/power.h ****     <td>power_usartd0_disable()</td>
 474:/usr/lib/avr/include/avr/power.h ****     <td> Disable the USART0 module on PortD</td>
 475:/usr/lib/avr/include/avr/power.h ****   </tr>
 476:/usr/lib/avr/include/avr/power.h **** 
 477:/usr/lib/avr/include/avr/power.h ****   <tr>
 478:/usr/lib/avr/include/avr/power.h ****     <td>power_usartd0_enable()</td>
 479:/usr/lib/avr/include/avr/power.h ****     <td> Enable the USART0 module on PortD</td>
 480:/usr/lib/avr/include/avr/power.h ****   </tr>
 481:/usr/lib/avr/include/avr/power.h **** 
 482:/usr/lib/avr/include/avr/power.h ****   <tr>
 483:/usr/lib/avr/include/avr/power.h ****     <td>power_usarte0_disable()</td>
 484:/usr/lib/avr/include/avr/power.h ****     <td> Disable the USART0 module on PortE</td>
 485:/usr/lib/avr/include/avr/power.h ****   </tr>
 486:/usr/lib/avr/include/avr/power.h **** 
 487:/usr/lib/avr/include/avr/power.h ****   <tr>
 488:/usr/lib/avr/include/avr/power.h ****     <td>power_usarte0_enable()</td>
 489:/usr/lib/avr/include/avr/power.h ****     <td> Enable the USART0 module on PortE</td>
 490:/usr/lib/avr/include/avr/power.h ****   </tr>
 491:/usr/lib/avr/include/avr/power.h **** 
 492:/usr/lib/avr/include/avr/power.h ****   <tr>
 493:/usr/lib/avr/include/avr/power.h ****     <td>power_usartf0_disable()</td>
 494:/usr/lib/avr/include/avr/power.h ****     <td> Disable the USART0 module on PortF</td>
 495:/usr/lib/avr/include/avr/power.h ****   </tr>
 496:/usr/lib/avr/include/avr/power.h **** 
 497:/usr/lib/avr/include/avr/power.h ****   <tr>
 498:/usr/lib/avr/include/avr/power.h ****     <td>power_usartf0_enable()</td>
 499:/usr/lib/avr/include/avr/power.h ****     <td> Enable the USART0 module on PortF</td>
 500:/usr/lib/avr/include/avr/power.h ****   </tr>
 501:/usr/lib/avr/include/avr/power.h **** 
 502:/usr/lib/avr/include/avr/power.h ****   <tr>
 503:/usr/lib/avr/include/avr/power.h ****     <td>power_usb_enable()</td>
 504:/usr/lib/avr/include/avr/power.h ****     <td>Enable the USB module.</td>
 505:/usr/lib/avr/include/avr/power.h ****   </tr>
 506:/usr/lib/avr/include/avr/power.h **** 
 507:/usr/lib/avr/include/avr/power.h ****   <tr>
 508:/usr/lib/avr/include/avr/power.h ****     <td>power_usb_disable()</td>
 509:/usr/lib/avr/include/avr/power.h ****     <td>Disable the USB module.</td>
 510:/usr/lib/avr/include/avr/power.h ****   </tr>
 511:/usr/lib/avr/include/avr/power.h **** 
 512:/usr/lib/avr/include/avr/power.h ****   <tr>
 513:/usr/lib/avr/include/avr/power.h ****     <td>power_usi_enable()</td>
 514:/usr/lib/avr/include/avr/power.h ****     <td>Enable the Universal Serial Interface module.</td>
 515:/usr/lib/avr/include/avr/power.h ****   </tr>
 516:/usr/lib/avr/include/avr/power.h **** 
 517:/usr/lib/avr/include/avr/power.h ****   <tr>
 518:/usr/lib/avr/include/avr/power.h ****     <td>power_usi_disable()</td>
 519:/usr/lib/avr/include/avr/power.h ****     <td>Disable the Universal Serial Interface module.</td>
 520:/usr/lib/avr/include/avr/power.h ****   </tr>
 521:/usr/lib/avr/include/avr/power.h **** 
 522:/usr/lib/avr/include/avr/power.h ****   <tr>
 523:/usr/lib/avr/include/avr/power.h ****     <td>power_vadc_enable()</td>
 524:/usr/lib/avr/include/avr/power.h ****     <td>Enable the Voltage ADC module.</td>
 525:/usr/lib/avr/include/avr/power.h ****   </tr>
 526:/usr/lib/avr/include/avr/power.h **** 
 527:/usr/lib/avr/include/avr/power.h ****   <tr>
 528:/usr/lib/avr/include/avr/power.h ****     <td>power_vadc_disable()</td>
 529:/usr/lib/avr/include/avr/power.h ****     <td>Disable the Voltage ADC module.</td>
 530:/usr/lib/avr/include/avr/power.h ****   </tr>
 531:/usr/lib/avr/include/avr/power.h **** 
 532:/usr/lib/avr/include/avr/power.h ****   <tr>
 533:/usr/lib/avr/include/avr/power.h ****     <td>power_all_enable()</td>
 534:/usr/lib/avr/include/avr/power.h ****     <td>Enable all modules.</td>
 535:/usr/lib/avr/include/avr/power.h ****   </tr>
 536:/usr/lib/avr/include/avr/power.h **** 
 537:/usr/lib/avr/include/avr/power.h ****   <tr>
 538:/usr/lib/avr/include/avr/power.h ****     <td>power_all_disable()</td>
 539:/usr/lib/avr/include/avr/power.h ****     <td>Disable all modules.</td>
 540:/usr/lib/avr/include/avr/power.h ****   </tr>
 541:/usr/lib/avr/include/avr/power.h **** </table>
 542:/usr/lib/avr/include/avr/power.h **** </center>
 543:/usr/lib/avr/include/avr/power.h **** </small>
 544:/usr/lib/avr/include/avr/power.h **** 
 545:/usr/lib/avr/include/avr/power.h **** @} */
 546:/usr/lib/avr/include/avr/power.h **** 
 547:/usr/lib/avr/include/avr/power.h **** #if defined(__AVR_HAVE_PRR_PRADC)
 548:/usr/lib/avr/include/avr/power.h **** #define power_adc_enable()      (PRR &= (uint8_t)~(1 << PRADC))
 549:/usr/lib/avr/include/avr/power.h **** #define power_adc_disable()     (PRR |= (uint8_t)(1 << PRADC))
 550:/usr/lib/avr/include/avr/power.h **** #endif
 551:/usr/lib/avr/include/avr/power.h **** 
 552:/usr/lib/avr/include/avr/power.h **** #if defined(__AVR_HAVE_PRR_PRCAN)
 553:/usr/lib/avr/include/avr/power.h **** #define power_can_enable()      (PRR &= (uint8_t)~(1 << PRCAN))
 554:/usr/lib/avr/include/avr/power.h **** #define power_can_disable()     (PRR |= (uint8_t)(1 << PRCAN))
 555:/usr/lib/avr/include/avr/power.h **** #endif
 556:/usr/lib/avr/include/avr/power.h **** 
 557:/usr/lib/avr/include/avr/power.h **** #if defined(__AVR_HAVE_PRR_PRLCD)
 558:/usr/lib/avr/include/avr/power.h **** #define power_lcd_enable()      (PRR &= (uint8_t)~(1 << PRLCD))
 559:/usr/lib/avr/include/avr/power.h **** #define power_lcd_disable()     (PRR |= (uint8_t)(1 << PRLCD))
 560:/usr/lib/avr/include/avr/power.h **** #endif
 561:/usr/lib/avr/include/avr/power.h **** 
 562:/usr/lib/avr/include/avr/power.h **** #if defined(__AVR_HAVE_PRR_PRLIN)
 563:/usr/lib/avr/include/avr/power.h **** #define power_lin_enable()      (PRR &= (uint8_t)~(1 << PRLIN))
 564:/usr/lib/avr/include/avr/power.h **** #define power_lin_disable()     (PRR |= (uint8_t)(1 << PRLIN))
 565:/usr/lib/avr/include/avr/power.h **** #endif
 566:/usr/lib/avr/include/avr/power.h **** 
 567:/usr/lib/avr/include/avr/power.h **** #if defined(__AVR_HAVE_PRR_PRPSC)
 568:/usr/lib/avr/include/avr/power.h **** #define power_psc_enable()      (PRR &= (uint8_t)~(1 << PRPSC))
 569:/usr/lib/avr/include/avr/power.h **** #define power_psc_disable()     (PRR |= (uint8_t)(1 << PRPSC))
 570:/usr/lib/avr/include/avr/power.h **** #endif
 571:/usr/lib/avr/include/avr/power.h **** 
 572:/usr/lib/avr/include/avr/power.h **** #if defined(__AVR_HAVE_PRR_PRPSC0)
 573:/usr/lib/avr/include/avr/power.h **** #define power_psc0_enable()     (PRR &= (uint8_t)~(1 << PRPSC0))
 574:/usr/lib/avr/include/avr/power.h **** #define power_psc0_disable()    (PRR |= (uint8_t)(1 << PRPSC0))
 575:/usr/lib/avr/include/avr/power.h **** #endif
 576:/usr/lib/avr/include/avr/power.h **** 
 577:/usr/lib/avr/include/avr/power.h **** #if defined(__AVR_HAVE_PRR_PRPSC1)
 578:/usr/lib/avr/include/avr/power.h **** #define power_psc1_enable()     (PRR &= (uint8_t)~(1 << PRPSC1))
 579:/usr/lib/avr/include/avr/power.h **** #define power_psc1_disable()    (PRR |= (uint8_t)(1 << PRPSC1))
 580:/usr/lib/avr/include/avr/power.h **** #endif
 581:/usr/lib/avr/include/avr/power.h **** 
 582:/usr/lib/avr/include/avr/power.h **** #if defined(__AVR_HAVE_PRR_PRPSC2)
 583:/usr/lib/avr/include/avr/power.h **** #define power_psc2_enable()     (PRR &= (uint8_t)~(1 << PRPSC2))
 584:/usr/lib/avr/include/avr/power.h **** #define power_psc2_disable()    (PRR |= (uint8_t)(1 << PRPSC2))
 585:/usr/lib/avr/include/avr/power.h **** #endif
 586:/usr/lib/avr/include/avr/power.h **** 
 587:/usr/lib/avr/include/avr/power.h **** #if defined(__AVR_HAVE_PRR_PRPSCR)
 588:/usr/lib/avr/include/avr/power.h **** #define power_pscr_enable()     (PRR &= (uint8_t)~(1 << PRPSCR))
 589:/usr/lib/avr/include/avr/power.h **** #define power_pscr_disable()    (PRR |= (uint8_t)(1 << PRPSCR))
 590:/usr/lib/avr/include/avr/power.h **** #endif
 591:/usr/lib/avr/include/avr/power.h **** 
 592:/usr/lib/avr/include/avr/power.h **** #if defined(__AVR_HAVE_PRR_PRSPI)
 593:/usr/lib/avr/include/avr/power.h **** #define power_spi_enable()      (PRR &= (uint8_t)~(1 << PRSPI))
 594:/usr/lib/avr/include/avr/power.h **** #define power_spi_disable()     (PRR |= (uint8_t)(1 << PRSPI))
 595:/usr/lib/avr/include/avr/power.h **** #endif
 596:/usr/lib/avr/include/avr/power.h **** 
 597:/usr/lib/avr/include/avr/power.h **** #if defined(__AVR_HAVE_PRR_PRTIM0)
 598:/usr/lib/avr/include/avr/power.h **** #define power_timer0_enable()   (PRR &= (uint8_t)~(1 << PRTIM0))
 599:/usr/lib/avr/include/avr/power.h **** #define power_timer0_disable()  (PRR |= (uint8_t)(1 << PRTIM0))
 600:/usr/lib/avr/include/avr/power.h **** #endif
 601:/usr/lib/avr/include/avr/power.h **** 
 602:/usr/lib/avr/include/avr/power.h **** #if defined(__AVR_HAVE_PRR_PRTIM1)
 603:/usr/lib/avr/include/avr/power.h **** #define power_timer1_enable()   (PRR &= (uint8_t)~(1 << PRTIM1))
 604:/usr/lib/avr/include/avr/power.h **** #define power_timer1_disable()  (PRR |= (uint8_t)(1 << PRTIM1))
 605:/usr/lib/avr/include/avr/power.h **** #endif
 606:/usr/lib/avr/include/avr/power.h **** 
 607:/usr/lib/avr/include/avr/power.h **** #if defined(__AVR_HAVE_PRR_PRTIM2)
 608:/usr/lib/avr/include/avr/power.h **** #define power_timer2_enable()   (PRR &= (uint8_t)~(1 << PRTIM2))
 609:/usr/lib/avr/include/avr/power.h **** #define power_timer2_disable()  (PRR |= (uint8_t)(1 << PRTIM2))
 610:/usr/lib/avr/include/avr/power.h **** #endif
 611:/usr/lib/avr/include/avr/power.h **** 
 612:/usr/lib/avr/include/avr/power.h **** #if defined(__AVR_HAVE_PRR_PRTWI)
 613:/usr/lib/avr/include/avr/power.h **** #define power_twi_enable()      (PRR &= (uint8_t)~(1 << PRTWI))
 614:/usr/lib/avr/include/avr/power.h **** #define power_twi_disable()     (PRR |= (uint8_t)(1 << PRTWI))
 615:/usr/lib/avr/include/avr/power.h **** #endif
 616:/usr/lib/avr/include/avr/power.h **** 
 617:/usr/lib/avr/include/avr/power.h **** #if defined(__AVR_HAVE_PRR_PRUSART)
 618:/usr/lib/avr/include/avr/power.h **** #define power_usart_enable()    (PRR &= (uint8_t)~(1 << PRUSART))
 619:/usr/lib/avr/include/avr/power.h **** #define power_usart_disable()   (PRR |= (uint8_t)(1 << PRUSART))
 620:/usr/lib/avr/include/avr/power.h **** #endif
 621:/usr/lib/avr/include/avr/power.h **** 
 622:/usr/lib/avr/include/avr/power.h **** #if defined(__AVR_HAVE_PRR_PRUSART0)
 623:/usr/lib/avr/include/avr/power.h **** #define power_usart0_enable()   (PRR &= (uint8_t)~(1 << PRUSART0))
 624:/usr/lib/avr/include/avr/power.h **** #define power_usart0_disable()  (PRR |= (uint8_t)(1 << PRUSART0))
 625:/usr/lib/avr/include/avr/power.h **** #endif
 626:/usr/lib/avr/include/avr/power.h **** 
 627:/usr/lib/avr/include/avr/power.h **** #if defined(__AVR_HAVE_PRR_PRUSART1)
 628:/usr/lib/avr/include/avr/power.h **** #define power_usart1_enable()   (PRR &= (uint8_t)~(1 << PRUSART1))
 629:/usr/lib/avr/include/avr/power.h **** #define power_usart1_disable()  (PRR |= (uint8_t)(1 << PRUSART1))
 630:/usr/lib/avr/include/avr/power.h **** #endif
 631:/usr/lib/avr/include/avr/power.h **** 
 632:/usr/lib/avr/include/avr/power.h **** #if defined(__AVR_HAVE_PRR_PRUSI)
 633:/usr/lib/avr/include/avr/power.h **** #define power_usi_enable()      (PRR &= (uint8_t)~(1 << PRUSI))
 634:/usr/lib/avr/include/avr/power.h **** #define power_usi_disable()     (PRR |= (uint8_t)(1 << PRUSI))
 635:/usr/lib/avr/include/avr/power.h **** #endif
 636:/usr/lib/avr/include/avr/power.h **** 
 637:/usr/lib/avr/include/avr/power.h **** #if defined(__AVR_HAVE_PRR0_PRADC)
 638:/usr/lib/avr/include/avr/power.h **** #define power_adc_enable()      (PRR0 &= (uint8_t)~(1 << PRADC))
 639:/usr/lib/avr/include/avr/power.h **** #define power_adc_disable()     (PRR0 |= (uint8_t)(1 << PRADC))
 640:/usr/lib/avr/include/avr/power.h **** #endif
 641:/usr/lib/avr/include/avr/power.h **** 
 642:/usr/lib/avr/include/avr/power.h **** #if defined(__AVR_HAVE_PRR0_PRCO)
 643:/usr/lib/avr/include/avr/power.h **** #define power_clock_output_enable()     (PRR0 &= (uint8_t)~(1 << PRCO))
 644:/usr/lib/avr/include/avr/power.h **** #define power_clock_output_disable()    (PRR0 |= (uint8_t)(1 << PRCO))
 645:/usr/lib/avr/include/avr/power.h **** #endif
 646:/usr/lib/avr/include/avr/power.h **** 
 647:/usr/lib/avr/include/avr/power.h **** #if defined(__AVR_HAVE_PRR0_PRCRC)
 648:/usr/lib/avr/include/avr/power.h **** #define power_crc_enable()              (PRR0 &= (uint8_t)~(1 << PRCRC))
 649:/usr/lib/avr/include/avr/power.h **** #define power_crc_disable()             (PRR0 |= (uint8_t)(1 << PRCRC))
 650:/usr/lib/avr/include/avr/power.h **** #endif
 651:/usr/lib/avr/include/avr/power.h **** 
 652:/usr/lib/avr/include/avr/power.h **** #if defined(__AVR_HAVE_PRR0_PRCU)
 653:/usr/lib/avr/include/avr/power.h **** #define power_crypto_enable()           (PRR0 &= (uint8_t)~(1 << PRCU))
 654:/usr/lib/avr/include/avr/power.h **** #define power_crypto_disable()          (PRR0 |= (uint8_t)(1 << PRCU))
 655:/usr/lib/avr/include/avr/power.h **** #endif
 656:/usr/lib/avr/include/avr/power.h **** 
 657:/usr/lib/avr/include/avr/power.h **** #if defined(__AVR_HAVE_PRR0_PRDS)
 658:/usr/lib/avr/include/avr/power.h **** #define power_irdriver_enable()         (PRR0 &= (uint8_t)~(1 << PRDS))
 659:/usr/lib/avr/include/avr/power.h **** #define power_irdriver_disable()        (PRR0 |= (uint8_t)(1 << PRDS))
 660:/usr/lib/avr/include/avr/power.h **** #endif
 661:/usr/lib/avr/include/avr/power.h **** 
 662:/usr/lib/avr/include/avr/power.h **** #if defined(__AVR_HAVE_PRR0_PRLFR)
 663:/usr/lib/avr/include/avr/power.h **** #define power_lfreceiver_enable()       (PRR0 &= (uint8_t)~(1 << PRLFR))
 664:/usr/lib/avr/include/avr/power.h **** #define power_lfreceiver_disable()      (PRR0 |= (uint8_t)(1 << PRLFR))
 665:/usr/lib/avr/include/avr/power.h **** #endif
 666:/usr/lib/avr/include/avr/power.h **** 
 667:/usr/lib/avr/include/avr/power.h **** #if defined(__AVR_HAVE_PRR0_PRLFRS)
 668:/usr/lib/avr/include/avr/power.h **** #define power_lfrs_enable()             (PRR0 &= (uint8_t)~(1 << PRLFRS))
 669:/usr/lib/avr/include/avr/power.h **** #define power_lfrs_disable()            (PRR0 |= (uint8_t)(1 << PRLFRS))
 670:/usr/lib/avr/include/avr/power.h **** #endif
 671:/usr/lib/avr/include/avr/power.h **** 
 672:/usr/lib/avr/include/avr/power.h **** #if defined(__AVR_HAVE_PRR0_PRLIN)
 673:/usr/lib/avr/include/avr/power.h **** #define power_lin_enable()              (PRR0 &= (uint8_t)~(1 << PRLIN))
 674:/usr/lib/avr/include/avr/power.h **** #define power_lin_disable()             (PRR0 |= (uint8_t)(1 << PRLIN))
 675:/usr/lib/avr/include/avr/power.h **** #endif
 676:/usr/lib/avr/include/avr/power.h **** 
 677:/usr/lib/avr/include/avr/power.h **** #if defined(__AVR_HAVE_PRR0_PRPGA)
 678:/usr/lib/avr/include/avr/power.h **** #define power_pga_enable()              (PRR0 &= (uint8_t)~(1 << PRPGA))
 679:/usr/lib/avr/include/avr/power.h **** #define power_pga_disable()             (PRR0 |= (uint8_t)(1 << PRPGA))
 680:/usr/lib/avr/include/avr/power.h **** #endif
 681:/usr/lib/avr/include/avr/power.h **** 
 682:/usr/lib/avr/include/avr/power.h **** #if defined(__AVR_HAVE_PRR0_PRRXDC)
 683:/usr/lib/avr/include/avr/power.h **** #define power_receive_dsp_control_enable()  (PRR0 &= (uint8_t)~(1 << PRRXDC))
 684:/usr/lib/avr/include/avr/power.h **** #define power_receive_dsp_control_disable() (PRR0 |= (uint8_t)(1 << PRRXDC))
 685:/usr/lib/avr/include/avr/power.h **** #endif
 686:/usr/lib/avr/include/avr/power.h **** 
 687:/usr/lib/avr/include/avr/power.h **** #if defined(__AVR_HAVE_PRR0_PRSPI)
 688:/usr/lib/avr/include/avr/power.h **** #define power_spi_enable()              (PRR0 &= (uint8_t)~(1 << PRSPI))
 689:/usr/lib/avr/include/avr/power.h **** #define power_spi_disable()             (PRR0 |= (uint8_t)(1 << PRSPI))
 690:/usr/lib/avr/include/avr/power.h **** #endif
 691:/usr/lib/avr/include/avr/power.h **** 
 692:/usr/lib/avr/include/avr/power.h **** #if defined(__AVR_HAVE_PRR0_PRT0)
 693:/usr/lib/avr/include/avr/power.h **** #define power_timer0_enable()           (PRR0 &= (uint8_t)~(1 << PRT0))
 694:/usr/lib/avr/include/avr/power.h **** #define power_timer0_disable()          (PRR0 |= (uint8_t)(1 << PRT0))
 695:/usr/lib/avr/include/avr/power.h **** #endif
 696:/usr/lib/avr/include/avr/power.h **** 
 697:/usr/lib/avr/include/avr/power.h **** #if defined(__AVR_HAVE_PRR0_PRTIM0)
 698:/usr/lib/avr/include/avr/power.h **** #define power_timer0_enable()           (PRR0 &= (uint8_t)~(1 << PRTIM0))
 699:/usr/lib/avr/include/avr/power.h **** #define power_timer0_disable()          (PRR0 |= (uint8_t)(1 << PRTIM0))
 700:/usr/lib/avr/include/avr/power.h **** #endif
 701:/usr/lib/avr/include/avr/power.h **** 
 702:/usr/lib/avr/include/avr/power.h **** #if defined(__AVR_HAVE_PRR0_PRT1)
 703:/usr/lib/avr/include/avr/power.h **** #define power_timer1_enable()           (PRR0 &= (uint8_t)~(1 << PRT1))
 704:/usr/lib/avr/include/avr/power.h **** #define power_timer1_disable()          (PRR0 |= (uint8_t)(1 << PRT1))
 705:/usr/lib/avr/include/avr/power.h **** #endif
 706:/usr/lib/avr/include/avr/power.h **** 
 707:/usr/lib/avr/include/avr/power.h **** #if defined(__AVR_HAVE_PRR0_PRTIM1)
 708:/usr/lib/avr/include/avr/power.h **** #define power_timer1_enable()           (PRR0 &= (uint8_t)~(1 << PRTIM1))
 709:/usr/lib/avr/include/avr/power.h **** #define power_timer1_disable()          (PRR0 |= (uint8_t)(1 << PRTIM1))
 710:/usr/lib/avr/include/avr/power.h **** #endif
 711:/usr/lib/avr/include/avr/power.h **** 
 712:/usr/lib/avr/include/avr/power.h **** #if defined(__AVR_HAVE_PRR0_PRT2)
 713:/usr/lib/avr/include/avr/power.h **** #define power_timer2_enable()           (PRR0 &= (uint8_t)~(1 << PRT2))
 714:/usr/lib/avr/include/avr/power.h **** #define power_timer2_disable()          (PRR0 |= (uint8_t)(1 << PRT2))
 715:/usr/lib/avr/include/avr/power.h **** #endif
 716:/usr/lib/avr/include/avr/power.h **** 
 717:/usr/lib/avr/include/avr/power.h **** #if defined(__AVR_HAVE_PRR0_PRTIM2)
 718:/usr/lib/avr/include/avr/power.h **** #define power_timer2_enable()           (PRR0 &= (uint8_t)~(1 << PRTIM2))
 719:/usr/lib/avr/include/avr/power.h **** #define power_timer2_disable()          (PRR0 |= (uint8_t)(1 << PRTIM2))
 720:/usr/lib/avr/include/avr/power.h **** #endif
 721:/usr/lib/avr/include/avr/power.h **** 
 722:/usr/lib/avr/include/avr/power.h **** #if defined(__AVR_HAVE_PRR0_PRT3)
 723:/usr/lib/avr/include/avr/power.h **** #define power_timer3_enable()           (PRR0 &= (uint8_t)~(1 << PRT3))
 724:/usr/lib/avr/include/avr/power.h **** #define power_timer3_disable()          (PRR0 |= (uint8_t)(1 << PRT3))
 725:/usr/lib/avr/include/avr/power.h **** #endif
 726:/usr/lib/avr/include/avr/power.h **** 
 727:/usr/lib/avr/include/avr/power.h **** #if defined(__AVR_HAVE_PRR0_PRTM)
 728:/usr/lib/avr/include/avr/power.h **** #define power_timermodulator_enable()   (PRR0 &= (uint8_t)~(1 << PRTM))
 729:/usr/lib/avr/include/avr/power.h **** #define power_timermodulator_disable()  (PRR0 |= (uint8_t)(1 << PRTM))
 730:/usr/lib/avr/include/avr/power.h **** #endif
 731:/usr/lib/avr/include/avr/power.h **** 
 732:/usr/lib/avr/include/avr/power.h **** #if defined(__AVR_HAVE_PRR0_PRTWI)
 733:/usr/lib/avr/include/avr/power.h **** #define power_twi_enable()              (PRR0 &= (uint8_t)~(1 << PRTWI))
 734:/usr/lib/avr/include/avr/power.h **** #define power_twi_disable()             (PRR0 |= (uint8_t)(1 << PRTWI))
 735:/usr/lib/avr/include/avr/power.h **** #endif
 736:/usr/lib/avr/include/avr/power.h **** 
 737:/usr/lib/avr/include/avr/power.h **** #if defined(__AVR_HAVE_PRR0_PRTWI1)
 738:/usr/lib/avr/include/avr/power.h **** #define power_twi1_enable()             (PRR0 &= (uint8_t)~(1 << PRTWI1))
 739:/usr/lib/avr/include/avr/power.h **** #define power_twi1_disable()            (PRR0 |= (uint8_t)(1 << PRTWI1))
 740:/usr/lib/avr/include/avr/power.h **** #endif
 741:/usr/lib/avr/include/avr/power.h **** 
 742:/usr/lib/avr/include/avr/power.h **** #if defined(__AVR_HAVE_PRR0_PRTXDC)
 743:/usr/lib/avr/include/avr/power.h **** #define power_transmit_dsp_control_enable()   (PRR0 &= (uint8_t)~(1 << PRTXDC))
 744:/usr/lib/avr/include/avr/power.h **** #define power_transmit_dsp_control_disable()  (PRR0 |= (uint8_t)(1 << PRTXDC))
 745:/usr/lib/avr/include/avr/power.h **** #endif
 746:/usr/lib/avr/include/avr/power.h **** 
 747:/usr/lib/avr/include/avr/power.h **** #if defined(__AVR_HAVE_PRR0_PRUSART0)
 748:/usr/lib/avr/include/avr/power.h **** #define power_usart0_enable()           (PRR0 &= (uint8_t)~(1 << PRUSART0))
 749:/usr/lib/avr/include/avr/power.h **** #define power_usart0_disable()          (PRR0 |= (uint8_t)(1 << PRUSART0))
 750:/usr/lib/avr/include/avr/power.h **** #endif
 751:/usr/lib/avr/include/avr/power.h **** 
 752:/usr/lib/avr/include/avr/power.h **** #if defined(__AVR_HAVE_PRR0_PRUSART1)
 753:/usr/lib/avr/include/avr/power.h **** #define power_usart1_enable()           (PRR0 &= (uint8_t)~(1 << PRUSART1))
 754:/usr/lib/avr/include/avr/power.h **** #define power_usart1_disable()          (PRR0 |= (uint8_t)(1 << PRUSART1))
 755:/usr/lib/avr/include/avr/power.h **** #endif
 756:/usr/lib/avr/include/avr/power.h **** 
 757:/usr/lib/avr/include/avr/power.h **** #if defined(__AVR_HAVE_PRR0_PRVADC)
 758:/usr/lib/avr/include/avr/power.h **** #define power_vadc_enable()             (PRR0 &= (uint8_t)~(1 << PRVADC))
 759:/usr/lib/avr/include/avr/power.h **** #define power_vadc_disable()            (PRR0 |= (uint8_t)(1 << PRVADC))
 760:/usr/lib/avr/include/avr/power.h **** #endif
 761:/usr/lib/avr/include/avr/power.h **** 
 762:/usr/lib/avr/include/avr/power.h **** #if defined(__AVR_HAVE_PRR0_PRVM)
 763:/usr/lib/avr/include/avr/power.h **** #define power_voltage_monitor_enable()  (PRR0 &= (uint8_t)~(1 << PRVM))
 764:/usr/lib/avr/include/avr/power.h **** #define power_voltage_monitor_disable() (PRR0 |= (uint8_t)(1 << PRVM))
 765:/usr/lib/avr/include/avr/power.h **** #endif
 766:/usr/lib/avr/include/avr/power.h **** 
 767:/usr/lib/avr/include/avr/power.h **** #if defined(__AVR_HAVE_PRR0_PRVRM)
 768:/usr/lib/avr/include/avr/power.h **** #define power_vrm_enable()              (PRR0 &= (uint8_t)~(1 << PRVRM))
 769:/usr/lib/avr/include/avr/power.h **** #define power_vrm_disable()             (PRR0 |= (uint8_t)(1 << PRVRM))
 770:/usr/lib/avr/include/avr/power.h **** #endif
 771:/usr/lib/avr/include/avr/power.h **** 
 772:/usr/lib/avr/include/avr/power.h **** #if defined(__AVR_HAVE_PRR1_PRAES)
 773:/usr/lib/avr/include/avr/power.h **** #define power_aes_enable()              (PRR1 &= (uint8_t)~(1 << PRAES))
 774:/usr/lib/avr/include/avr/power.h **** #define power_aes_disable()             (PRR1 |= (uint8_t)(1 << PRAES))
 775:/usr/lib/avr/include/avr/power.h **** #endif
 776:/usr/lib/avr/include/avr/power.h **** 
 777:/usr/lib/avr/include/avr/power.h **** #if defined(__AVR_HAVE_PRR1_PRCI)
 778:/usr/lib/avr/include/avr/power.h **** #define power_cinterface_enable()       (PRR1 &= (uint8_t)~(1 << PRCI))
 779:/usr/lib/avr/include/avr/power.h **** #define power_cinterface_disable()      (PRR1 |= (uint8_t)(1 << PRCI))
 780:/usr/lib/avr/include/avr/power.h **** #endif
 781:/usr/lib/avr/include/avr/power.h **** 
 782:/usr/lib/avr/include/avr/power.h **** #if defined(__AVR_HAVE_PRR1_PRHSSPI)
 783:/usr/lib/avr/include/avr/power.h **** #define power_hsspi_enable()            (PRR1 &= (uint8_t)~(1 << PRHSSPI))
 784:/usr/lib/avr/include/avr/power.h **** #define power_hsspi_disable()           (PRR1 |= (uint8_t)(1 << PRHSSPI))
 785:/usr/lib/avr/include/avr/power.h **** #endif
 786:/usr/lib/avr/include/avr/power.h **** 
 787:/usr/lib/avr/include/avr/power.h **** #if defined(__AVR_HAVE_PRR1_PRKB)
 788:/usr/lib/avr/include/avr/power.h **** #define power_kb_enable()               (PRR1 &= (uint8_t)~(1 << PRKB))
 789:/usr/lib/avr/include/avr/power.h **** #define power_kb_disable()              (PRR1 |= (uint8_t)(1 << PRKB))
 790:/usr/lib/avr/include/avr/power.h **** #endif
 791:/usr/lib/avr/include/avr/power.h **** 
 792:/usr/lib/avr/include/avr/power.h **** #if defined(__AVR_HAVE_PRR1_PRLFPH)
 793:/usr/lib/avr/include/avr/power.h **** #define power_lfph_enable()             (PRR1 &= (uint8_t)~(1 << PRLFPH))
 794:/usr/lib/avr/include/avr/power.h **** #define power_lfph_disable()            (PRR1 |= (uint8_t)(1 << PRLFPH))
 795:/usr/lib/avr/include/avr/power.h **** #endif
 796:/usr/lib/avr/include/avr/power.h **** 
 797:/usr/lib/avr/include/avr/power.h **** #if defined(__AVR_HAVE_PRR1_PRLFR)
 798:/usr/lib/avr/include/avr/power.h **** #define power_lfreceiver_enable()       (PRR1 &= (uint8_t)~(1 << PRLFR))            
 799:/usr/lib/avr/include/avr/power.h **** #define power_lfreceiver_disable()      (PRR1 |= (uint8_t)(1 << PRLFR))            
 800:/usr/lib/avr/include/avr/power.h **** #endif
 801:/usr/lib/avr/include/avr/power.h **** 
 802:/usr/lib/avr/include/avr/power.h **** #if defined(__AVR_HAVE_PRR1_PRLFTP)
 803:/usr/lib/avr/include/avr/power.h **** #define power_lftp_enable()             (PRR1 &= (uint8_t)~(1 << PRLFTP))
 804:/usr/lib/avr/include/avr/power.h **** #define power_lftp_disable()            (PRR1 |= (uint8_t)(1 << PRLFTP))
 805:/usr/lib/avr/include/avr/power.h **** #endif
 806:/usr/lib/avr/include/avr/power.h **** 
 807:/usr/lib/avr/include/avr/power.h **** #if defined(__AVR_HAVE_PRR1_PRSCI)
 808:/usr/lib/avr/include/avr/power.h **** #define power_sci_enable()              (PRR1 &= (uint8_t)~(1 << PRSCI))
 809:/usr/lib/avr/include/avr/power.h **** #define power_sci_disable()             (PRR1 |= (uint8_t)(1 << PRSCI))
 810:/usr/lib/avr/include/avr/power.h **** #endif
 811:/usr/lib/avr/include/avr/power.h **** 
 812:/usr/lib/avr/include/avr/power.h **** #if defined(__AVR_HAVE_PRR1_PRSPI)
 813:/usr/lib/avr/include/avr/power.h **** #define power_spi_enable()              (PRR1 &= (uint8_t)~(1 << PRSPI))
 814:/usr/lib/avr/include/avr/power.h **** #define power_spi_disable()             (PRR1 |= (uint8_t)(1 << PRSPI))
 815:/usr/lib/avr/include/avr/power.h **** #endif
 816:/usr/lib/avr/include/avr/power.h **** 
 817:/usr/lib/avr/include/avr/power.h **** #if defined(__AVR_HAVE_PRR1_PRT1)
 818:/usr/lib/avr/include/avr/power.h **** #define power_timer1_enable()           (PRR1 &= (uint8_t)~(1 << PRT1))
 819:/usr/lib/avr/include/avr/power.h **** #define power_timer1_disable()          (PRR1 |= (uint8_t)(1 << PRT1))
 820:/usr/lib/avr/include/avr/power.h **** #endif
 821:/usr/lib/avr/include/avr/power.h **** 
 822:/usr/lib/avr/include/avr/power.h **** #if defined(__AVR_HAVE_PRR1_PRT2)
 823:/usr/lib/avr/include/avr/power.h **** #define power_timer2_enable()           (PRR1 &= (uint8_t)~(1 << PRT2))
 824:/usr/lib/avr/include/avr/power.h **** #define power_timer2_disable()          (PRR1 |= (uint8_t)(1 << PRT2))
 825:/usr/lib/avr/include/avr/power.h **** #endif
 826:/usr/lib/avr/include/avr/power.h **** 
 827:/usr/lib/avr/include/avr/power.h **** #if defined(__AVR_HAVE_PRR1_PRT3)
 828:/usr/lib/avr/include/avr/power.h **** #define power_timer3_enable()           (PRR1 &= (uint8_t)~(1 << PRT3))
 829:/usr/lib/avr/include/avr/power.h **** #define power_timer3_disable()          (PRR1 |= (uint8_t)(1 << PRT3))
 830:/usr/lib/avr/include/avr/power.h **** #endif
 831:/usr/lib/avr/include/avr/power.h **** 
 832:/usr/lib/avr/include/avr/power.h **** #if defined(__AVR_HAVE_PRR1_PRT4)
 833:/usr/lib/avr/include/avr/power.h **** #define power_timer4_enable()           (PRR1 &= (uint8_t)~(1 << PRT4))
 834:/usr/lib/avr/include/avr/power.h **** #define power_timer4_disable()          (PRR1 |= (uint8_t)(1 << PRT4))
 835:/usr/lib/avr/include/avr/power.h **** #endif
 836:/usr/lib/avr/include/avr/power.h **** 
 837:/usr/lib/avr/include/avr/power.h **** #if defined(__AVR_HAVE_PRR1_PRT5)
 838:/usr/lib/avr/include/avr/power.h **** #define power_timer5_enable()           (PRR1 &= (uint8_t)~(1 << PRT5))
 839:/usr/lib/avr/include/avr/power.h **** #define power_timer5_disable()          (PRR1 |= (uint8_t)(1 << PRT5))
 840:/usr/lib/avr/include/avr/power.h **** #endif
 841:/usr/lib/avr/include/avr/power.h **** 
 842:/usr/lib/avr/include/avr/power.h **** #if defined(__AVR_HAVE_PRR1_PRTIM3)
 843:/usr/lib/avr/include/avr/power.h **** #define power_timer3_enable()           (PRR1 &= (uint8_t)~(1 << PRTIM3))
 844:/usr/lib/avr/include/avr/power.h **** #define power_timer3_disable()          (PRR1 |= (uint8_t)(1 << PRTIM3))
 845:/usr/lib/avr/include/avr/power.h **** #endif
 846:/usr/lib/avr/include/avr/power.h **** 
 847:/usr/lib/avr/include/avr/power.h **** #if defined(__AVR_HAVE_PRR1_PRTIM4)
 848:/usr/lib/avr/include/avr/power.h **** #define power_timer4_enable()           (PRR1 &= (uint8_t)~(1 << PRTIM4))
 849:/usr/lib/avr/include/avr/power.h **** #define power_timer4_disable()          (PRR1 |= (uint8_t)(1 << PRTIM4))
 850:/usr/lib/avr/include/avr/power.h **** #endif
 851:/usr/lib/avr/include/avr/power.h **** 
 852:/usr/lib/avr/include/avr/power.h **** #if defined(__AVR_HAVE_PRR1_PRTIM5)
 853:/usr/lib/avr/include/avr/power.h **** #define power_timer5_enable()           (PRR1 &= (uint8_t)~(1 << PRTIM5))
 854:/usr/lib/avr/include/avr/power.h **** #define power_timer5_disable()          (PRR1 |= (uint8_t)(1 << PRTIM5))
 855:/usr/lib/avr/include/avr/power.h **** #endif
 856:/usr/lib/avr/include/avr/power.h **** 
 857:/usr/lib/avr/include/avr/power.h **** #if defined(__AVR_HAVE_PRR1_PRTRX24)
 858:/usr/lib/avr/include/avr/power.h **** #define power_transceiver_enable()      (PRR1 &= (uint8_t)~(1 << PRTRX24))
 859:/usr/lib/avr/include/avr/power.h **** #define power_transceiver_disable()     (PRR1 |= (uint8_t)(1 << PRTRX24))
 860:/usr/lib/avr/include/avr/power.h **** #endif
 861:/usr/lib/avr/include/avr/power.h **** 
 862:/usr/lib/avr/include/avr/power.h **** #if defined(__AVR_HAVE_PRR1_PRUSART1)
 863:/usr/lib/avr/include/avr/power.h **** #define power_usart1_enable()           (PRR1 &= (uint8_t)~(1 << PRUSART1))
 864:/usr/lib/avr/include/avr/power.h **** #define power_usart1_disable()          (PRR1 |= (uint8_t)(1 << PRUSART1))
 865:/usr/lib/avr/include/avr/power.h **** #endif
 866:/usr/lib/avr/include/avr/power.h **** 
 867:/usr/lib/avr/include/avr/power.h **** #if defined(__AVR_HAVE_PRR1_PRUSART2)
 868:/usr/lib/avr/include/avr/power.h **** #define power_usart2_enable()           (PRR1 &= (uint8_t)~(1 << PRUSART2))
 869:/usr/lib/avr/include/avr/power.h **** #define power_usart2_disable()          (PRR1 |= (uint8_t)(1 << PRUSART2))
 870:/usr/lib/avr/include/avr/power.h **** #endif
 871:/usr/lib/avr/include/avr/power.h **** 
 872:/usr/lib/avr/include/avr/power.h **** #if defined(__AVR_HAVE_PRR1_PRUSART3)
 873:/usr/lib/avr/include/avr/power.h **** #define power_usart3_enable()           (PRR1 &= (uint8_t)~(1 << PRUSART3))
 874:/usr/lib/avr/include/avr/power.h **** #define power_usart3_disable()          (PRR1 |= (uint8_t)(1 << PRUSART3))
 875:/usr/lib/avr/include/avr/power.h **** #endif
 876:/usr/lib/avr/include/avr/power.h **** 
 877:/usr/lib/avr/include/avr/power.h **** #if defined(__AVR_HAVE_PRR1_PRUSB)
 878:/usr/lib/avr/include/avr/power.h **** #define power_usb_enable()              (PRR1 &= (uint8_t)~(1 << PRUSB))
 879:/usr/lib/avr/include/avr/power.h **** #define power_usb_disable()             (PRR1 |= (uint8_t)(1 << PRUSB))
 880:/usr/lib/avr/include/avr/power.h **** #endif
 881:/usr/lib/avr/include/avr/power.h **** 
 882:/usr/lib/avr/include/avr/power.h **** #if defined(__AVR_HAVE_PRR1_PRUSBH)
 883:/usr/lib/avr/include/avr/power.h **** #define power_usbh_enable()             (PRR1 &= (uint8_t)~(1 << PRUSBH))
 884:/usr/lib/avr/include/avr/power.h **** #define power_usbh_disable()            (PRR1 |= (uint8_t)(1 << PRUSBH))
 885:/usr/lib/avr/include/avr/power.h **** #endif
 886:/usr/lib/avr/include/avr/power.h **** 
 887:/usr/lib/avr/include/avr/power.h **** #if defined(__AVR_HAVE_PRR2_PRDF)
 888:/usr/lib/avr/include/avr/power.h **** #define power_data_fifo_enable()        (PRR2 &= (uint8_t)~(1 << PRDF))
 889:/usr/lib/avr/include/avr/power.h **** #define power_data_fifo_disable()       (PRR2 |= (uint8_t)(1 << PRDF))
 890:/usr/lib/avr/include/avr/power.h **** #endif
 891:/usr/lib/avr/include/avr/power.h **** 
 892:/usr/lib/avr/include/avr/power.h **** #if defined(__AVR_HAVE_PRR2_PRIDS)
 893:/usr/lib/avr/include/avr/power.h **** #define power_id_scan_enable()          (PRR2 &= (uint8_t)~(1 << PRIDS))
 894:/usr/lib/avr/include/avr/power.h **** #define power_id_scan_disable()         (PRR2 |= (uint8_t)(1 << PRIDS))
 895:/usr/lib/avr/include/avr/power.h **** #endif
 896:/usr/lib/avr/include/avr/power.h **** 
 897:/usr/lib/avr/include/avr/power.h **** #if defined(__AVR_HAVE_PRR2_PRRAM0)
 898:/usr/lib/avr/include/avr/power.h **** #define power_ram0_enable()             (PRR2 &= (uint8_t)~(1 << PRRAM0))
 899:/usr/lib/avr/include/avr/power.h **** #define power_ram0_disable()            (PRR2 |= (uint8_t)(1 << PRRAM0))
 900:/usr/lib/avr/include/avr/power.h **** #endif
 901:/usr/lib/avr/include/avr/power.h **** 
 902:/usr/lib/avr/include/avr/power.h **** #if defined(__AVR_HAVE_PRR2_PRRAM1)
 903:/usr/lib/avr/include/avr/power.h **** #define power_ram1_enable()             (PRR2 &= (uint8_t)~(1 << PRRAM1))
 904:/usr/lib/avr/include/avr/power.h **** #define power_ram1_disable()            (PRR2 |= (uint8_t)(1 << PRRAM1))
 905:/usr/lib/avr/include/avr/power.h **** #endif
 906:/usr/lib/avr/include/avr/power.h **** 
 907:/usr/lib/avr/include/avr/power.h **** #if defined(__AVR_HAVE_PRR2_PRRAM2)
 908:/usr/lib/avr/include/avr/power.h **** #define power_ram2_enable()             (PRR2 &= (uint8_t)~(1 << PRRAM2))
 909:/usr/lib/avr/include/avr/power.h **** #define power_ram2_disable()            (PRR2 |= (uint8_t)(1 << PRRAM2))
 910:/usr/lib/avr/include/avr/power.h **** #endif
 911:/usr/lib/avr/include/avr/power.h **** 
 912:/usr/lib/avr/include/avr/power.h **** #if defined(__AVR_HAVE_PRR2_PRRAM3)
 913:/usr/lib/avr/include/avr/power.h **** #define power_ram3_enable()             (PRR2 &= (uint8_t)~(1 << PRRAM3))
 914:/usr/lib/avr/include/avr/power.h **** #define power_ram3_disable()            (PRR2 |= (uint8_t)(1 << PRRAM3))
 915:/usr/lib/avr/include/avr/power.h **** #endif
 916:/usr/lib/avr/include/avr/power.h **** 
 917:/usr/lib/avr/include/avr/power.h **** #if defined(__AVR_HAVE_PRR2_PRRS)
 918:/usr/lib/avr/include/avr/power.h **** #define power_rssi_buffer_enable()      (PRR2 &= (uint8_t)~(1 << PRRS))
 919:/usr/lib/avr/include/avr/power.h **** #define power_rssi_buffer_disable()     (PRR2 |= (uint8_t)(1 << PRRS))
 920:/usr/lib/avr/include/avr/power.h **** #endif
 921:/usr/lib/avr/include/avr/power.h **** 
 922:/usr/lib/avr/include/avr/power.h **** #if defined(__AVR_HAVE_PRR2_PRSF)
 923:/usr/lib/avr/include/avr/power.h **** #define power_preamble_rssi_fifo_enable()       (PRR2 &= (uint8_t)~(1 << PRSF))
 924:/usr/lib/avr/include/avr/power.h **** #define power_preamble_rssi_fifo_disable()      (PRR2 |= (uint8_t)(1 << PRSF))
 925:/usr/lib/avr/include/avr/power.h **** #endif
 926:/usr/lib/avr/include/avr/power.h **** 
 927:/usr/lib/avr/include/avr/power.h **** #if defined(__AVR_HAVE_PRR2_PRSPI2)
 928:/usr/lib/avr/include/avr/power.h **** #define power_spi2_enable()             (PRR2 &= (uint8_t)~(1 << PRSPI2))
 929:/usr/lib/avr/include/avr/power.h **** #define power_spi2_disable()            (PRR2 |= (uint8_t)(1 << PRSPI2))
 930:/usr/lib/avr/include/avr/power.h **** #endif
 931:/usr/lib/avr/include/avr/power.h **** 
 932:/usr/lib/avr/include/avr/power.h **** #if defined(__AVR_HAVE_PRR2_PRSSM)
 933:/usr/lib/avr/include/avr/power.h **** #define power_sequencer_state_machine_enable()  (PRR2 &= (uint8_t)~(1 << PRSSM))
 934:/usr/lib/avr/include/avr/power.h **** #define power_sequencer_state_machine_disable() (PRR2 |= (uint8_t)(1 << PRSSM))
 935:/usr/lib/avr/include/avr/power.h **** #endif
 936:/usr/lib/avr/include/avr/power.h **** 
 937:/usr/lib/avr/include/avr/power.h **** #if defined(__AVR_HAVE_PRR2_PRTM)
 938:/usr/lib/avr/include/avr/power.h **** #define power_tx_modulator_enable()     (PRR2 &= (uint8_t)~(1 << PRTM))
 939:/usr/lib/avr/include/avr/power.h **** #define power_tx_modulator_disable()    (PRR2 |= (uint8_t)(1 << PRTM))
 940:/usr/lib/avr/include/avr/power.h **** #endif
 941:/usr/lib/avr/include/avr/power.h **** 
 942:/usr/lib/avr/include/avr/power.h **** #if defined(__AVR_HAVE_PRR2_PRTWI2)
 943:/usr/lib/avr/include/avr/power.h **** #define power_twi2_enable()             (PRR2 &= (uint8_t)~(1 << PRTWI2))
 944:/usr/lib/avr/include/avr/power.h **** #define power_twi2_disable()            (PRR2 |= (uint8_t)(1 << PRTWI2))
 945:/usr/lib/avr/include/avr/power.h **** #endif
 946:/usr/lib/avr/include/avr/power.h **** 
 947:/usr/lib/avr/include/avr/power.h **** #if defined(__AVR_HAVE_PRR2_PRXA)
 948:/usr/lib/avr/include/avr/power.h **** #define power_rx_buffer_A_enable()      (PRR2 &= (uint8_t)~(1 << PRXA))
 949:/usr/lib/avr/include/avr/power.h **** #define power_rx_buffer_A_disable()     (PRR2 |= (uint8_t)(1 << PRXA))
 950:/usr/lib/avr/include/avr/power.h **** #endif
 951:/usr/lib/avr/include/avr/power.h **** 
 952:/usr/lib/avr/include/avr/power.h **** #if defined(__AVR_HAVE_PRR2_PRXB)
 953:/usr/lib/avr/include/avr/power.h **** #define power_rx_buffer_B_enable()      (PRR2 &= (uint8_t)~(1 << PRXB))
 954:/usr/lib/avr/include/avr/power.h **** #define power_rx_buffer_B_disable()     (PRR2 |= (uint8_t)(1 << PRXB))
 955:/usr/lib/avr/include/avr/power.h **** #endif
 956:/usr/lib/avr/include/avr/power.h **** 
 957:/usr/lib/avr/include/avr/power.h **** #if defined(__AVR_HAVE_PRGEN_AES)
 958:/usr/lib/avr/include/avr/power.h **** #define power_aes_enable()              (PR_PRGEN &= (uint8_t)~(PR_AES_bm))
 959:/usr/lib/avr/include/avr/power.h **** #define power_aes_disable()             (PR_PRGEN |= (uint8_t)PR_AES_bm)
 960:/usr/lib/avr/include/avr/power.h **** #endif
 961:/usr/lib/avr/include/avr/power.h **** 
 962:/usr/lib/avr/include/avr/power.h **** #if defined(__AVR_HAVE_PRGEN_DMA)
 963:/usr/lib/avr/include/avr/power.h **** #define power_dma_enable()              (PR_PRGEN &= (uint8_t)~(PR_DMA_bm))
 964:/usr/lib/avr/include/avr/power.h **** #define power_dma_disable()             (PR_PRGEN |= (uint8_t)PR_DMA_bm)
 965:/usr/lib/avr/include/avr/power.h **** #endif
 966:/usr/lib/avr/include/avr/power.h **** 
 967:/usr/lib/avr/include/avr/power.h **** #if defined(__AVR_HAVE_PRGEN_EBI)
 968:/usr/lib/avr/include/avr/power.h **** #define power_ebi_enable()              (PR_PRGEN &= (uint8_t)~(PR_EBI_bm))
 969:/usr/lib/avr/include/avr/power.h **** #define power_ebi_disable()             (PR_PRGEN |= (uint8_t)PR_EBI_bm)
 970:/usr/lib/avr/include/avr/power.h **** #endif
 971:/usr/lib/avr/include/avr/power.h **** 
 972:/usr/lib/avr/include/avr/power.h **** #if defined(__AVR_HAVE_PRGEN_EDMA)
 973:/usr/lib/avr/include/avr/power.h **** #define power_edma_enable()             (PR_PRGEN &= (uint8_t)~(PR_EDMA_bm))
 974:/usr/lib/avr/include/avr/power.h **** #define power_edma_disable()            (PR_PRGEN |= (uint8_t)PR_EDMA_bm)
 975:/usr/lib/avr/include/avr/power.h **** #endif
 976:/usr/lib/avr/include/avr/power.h **** 
 977:/usr/lib/avr/include/avr/power.h **** #if defined(__AVR_HAVE_PRGEN_EVSYS)
 978:/usr/lib/avr/include/avr/power.h **** #define power_evsys_enable()            (PR_PRGEN &= (uint8_t)~(PR_EVSYS_bm))
 979:/usr/lib/avr/include/avr/power.h **** #define power_evsys_disable()           (PR_PRGEN |= (uint8_t)PR_EVSYS_bm)
 980:/usr/lib/avr/include/avr/power.h **** #endif
 981:/usr/lib/avr/include/avr/power.h **** 
 982:/usr/lib/avr/include/avr/power.h **** #if defined(__AVR_HAVE_PRGEN_LCD)
 983:/usr/lib/avr/include/avr/power.h **** #define power_lcd_enable()              (PR_PRGEN &= (uint8_t)~(PR_LCD_bm))
 984:/usr/lib/avr/include/avr/power.h **** #define power_lcd_disable()             (PR_PRGEN |= (uint8_t)PR_LCD_bm)
 985:/usr/lib/avr/include/avr/power.h **** #endif
 986:/usr/lib/avr/include/avr/power.h **** 
 987:/usr/lib/avr/include/avr/power.h **** #if defined(__AVR_HAVE_PRGEN_RTC)
 988:/usr/lib/avr/include/avr/power.h **** #define power_rtc_enable()              (PR_PRGEN &= (uint8_t)~(PR_RTC_bm))
 989:/usr/lib/avr/include/avr/power.h **** #define power_rtc_disable()             (PR_PRGEN |= (uint8_t)PR_RTC_bm)
 990:/usr/lib/avr/include/avr/power.h **** #endif
 991:/usr/lib/avr/include/avr/power.h **** 
 992:/usr/lib/avr/include/avr/power.h **** #if defined(__AVR_HAVE_PRGEN_USB)
 993:/usr/lib/avr/include/avr/power.h **** #define power_usb_enable()              (PR_PRGEN &= (uint8_t)~(PR_USB_bm))
 994:/usr/lib/avr/include/avr/power.h **** #define power_usb_disable()             (PR_PRGEN &= (uint8_t)(PR_USB_bm))
 995:/usr/lib/avr/include/avr/power.h **** #endif
 996:/usr/lib/avr/include/avr/power.h **** 
 997:/usr/lib/avr/include/avr/power.h **** #if defined(__AVR_HAVE_PRGEN_XCL)
 998:/usr/lib/avr/include/avr/power.h **** #define power_xcl_enable()              (PR_PRGEN &= (uint8_t)~(PR_XCL_bm))
 999:/usr/lib/avr/include/avr/power.h **** #define power_xcl_disable()             (PR_PRGEN |= (uint8_t)PR_XCL_bm)
1000:/usr/lib/avr/include/avr/power.h **** #endif
1001:/usr/lib/avr/include/avr/power.h **** 
1002:/usr/lib/avr/include/avr/power.h **** #if defined(__AVR_HAVE_PRPA_AC)
1003:/usr/lib/avr/include/avr/power.h **** #define power_aca_enable()      (PR_PRPA &= (uint8_t)~(PR_AC_bm))
1004:/usr/lib/avr/include/avr/power.h **** #define power_aca_disable()     (PR_PRPA |= (uint8_t)PR_AC_bm)
1005:/usr/lib/avr/include/avr/power.h **** #endif
1006:/usr/lib/avr/include/avr/power.h **** 
1007:/usr/lib/avr/include/avr/power.h **** #if defined(__AVR_HAVE_PRPA_ADC)
1008:/usr/lib/avr/include/avr/power.h **** #define power_adca_enable()     (PR_PRPA &= (uint8_t)~(PR_ADC_bm))
1009:/usr/lib/avr/include/avr/power.h **** #define power_adca_disable()    (PR_PRPA |= (uint8_t)PR_ADC_bm)
1010:/usr/lib/avr/include/avr/power.h **** #endif
1011:/usr/lib/avr/include/avr/power.h **** 
1012:/usr/lib/avr/include/avr/power.h **** #if defined(__AVR_HAVE_PRPA_DAC)
1013:/usr/lib/avr/include/avr/power.h **** #define power_daca_enable()     (PR_PRPA &= (uint8_t)~(PR_DAC_bm))
1014:/usr/lib/avr/include/avr/power.h **** #define power_daca_disable()    (PR_PRPA |= (uint8_t)PR_DAC_bm)
1015:/usr/lib/avr/include/avr/power.h **** #endif
1016:/usr/lib/avr/include/avr/power.h **** 
1017:/usr/lib/avr/include/avr/power.h **** #if defined(__AVR_HAVE_PRPB_AC)
1018:/usr/lib/avr/include/avr/power.h **** #define power_acb_enable()      (PR_PRPB &= (uint8_t)~(PR_AC_bm))
1019:/usr/lib/avr/include/avr/power.h **** #define power_acb_disable()     (PR_PRPB |= (uint8_t)PR_AC_bm)
1020:/usr/lib/avr/include/avr/power.h **** #endif
1021:/usr/lib/avr/include/avr/power.h **** 
1022:/usr/lib/avr/include/avr/power.h **** #if defined(__AVR_HAVE_PRPB_ADC)
1023:/usr/lib/avr/include/avr/power.h **** #define power_adcb_enable()     (PR_PRPB &= (uint8_t)~(PR_ADC_bm))
1024:/usr/lib/avr/include/avr/power.h **** #define power_adcb_disable()    (PR_PRPB |= (uint8_t)PR_ADC_bm)
1025:/usr/lib/avr/include/avr/power.h **** #endif
1026:/usr/lib/avr/include/avr/power.h **** 
1027:/usr/lib/avr/include/avr/power.h **** #if defined(__AVR_HAVE_PRPB_DAC)
1028:/usr/lib/avr/include/avr/power.h **** #define power_dacb_enable()     (PR_PRPB &= (uint8_t)~(PR_DAC_bm))
1029:/usr/lib/avr/include/avr/power.h **** #define power_dacb_disable()    (PR_PRPB |= (uint8_t)PR_DAC_bm)
1030:/usr/lib/avr/include/avr/power.h **** #endif
1031:/usr/lib/avr/include/avr/power.h **** 
1032:/usr/lib/avr/include/avr/power.h **** #if defined(__AVR_HAVE_PRPC_HIRES)
1033:/usr/lib/avr/include/avr/power.h **** #define power_hiresc_enable()   (PR_PRPC &= (uint8_t)~(PR_HIRES_bm))
1034:/usr/lib/avr/include/avr/power.h **** #define power_hiresc_disable()  (PR_PRPC |= (uint8_t)PR_HIRES_bm)
1035:/usr/lib/avr/include/avr/power.h **** #endif
1036:/usr/lib/avr/include/avr/power.h **** 
1037:/usr/lib/avr/include/avr/power.h **** #if defined(__AVR_HAVE_PRPC_SPI)
1038:/usr/lib/avr/include/avr/power.h **** #define power_spic_enable()     (PR_PRPC &= (uint8_t)~(PR_SPI_bm))
1039:/usr/lib/avr/include/avr/power.h **** #define power_spic_disable()    (PR_PRPC |= (uint8_t)PR_SPI_bm)
1040:/usr/lib/avr/include/avr/power.h **** #endif
1041:/usr/lib/avr/include/avr/power.h **** 
1042:/usr/lib/avr/include/avr/power.h **** #if defined(__AVR_HAVE_PRPC_TC0)
1043:/usr/lib/avr/include/avr/power.h **** #define power_tc0c_enable()     (PR_PRPC &= (uint8_t)~(PR_TC0_bm))
1044:/usr/lib/avr/include/avr/power.h **** #define power_tc0c_disable()    (PR_PRPC |= (uint8_t)PR_TC0_bm)
1045:/usr/lib/avr/include/avr/power.h **** #endif
1046:/usr/lib/avr/include/avr/power.h **** 
1047:/usr/lib/avr/include/avr/power.h **** #if defined(__AVR_HAVE_PRPC_TC1)
1048:/usr/lib/avr/include/avr/power.h **** #define power_tc1c_enable()     (PR_PRPC &= (uint8_t)~(PR_TC1_bm))
1049:/usr/lib/avr/include/avr/power.h **** #define power_tc1c_disable()    (PR_PRPC |= (uint8_t)PR_TC1_bm)
1050:/usr/lib/avr/include/avr/power.h **** #endif
1051:/usr/lib/avr/include/avr/power.h **** 
1052:/usr/lib/avr/include/avr/power.h **** #if defined(__AVR_HAVE_PRPC_TC4)
1053:/usr/lib/avr/include/avr/power.h **** #define power_tc4c_enable()     (PR_PRPC  &= (uint8_t)~(PR_TC4_bm))
1054:/usr/lib/avr/include/avr/power.h **** #define power_tc4c_disable()    (PR_PRPC  |= (uint8_t)PR_TC4_bm)
1055:/usr/lib/avr/include/avr/power.h **** #endif
1056:/usr/lib/avr/include/avr/power.h **** 
1057:/usr/lib/avr/include/avr/power.h **** #if defined(__AVR_HAVE_PRPC_TC5)
1058:/usr/lib/avr/include/avr/power.h **** #define power_tc5c_enable()     (PR_PRPC  &= (uint8_t)~(PR_TC5_bm))
1059:/usr/lib/avr/include/avr/power.h **** #define power_tc5c_disable()    (PR_PRPC  |= (uint8_t)PR_TC5_bm)
1060:/usr/lib/avr/include/avr/power.h **** #endif
1061:/usr/lib/avr/include/avr/power.h **** 
1062:/usr/lib/avr/include/avr/power.h **** #if defined(__AVR_HAVE_PRPC_TWI)
1063:/usr/lib/avr/include/avr/power.h **** #define power_twic_enable()     (PR_PRPC &= (uint8_t)~(PR_TWI_bm))
1064:/usr/lib/avr/include/avr/power.h **** #define power_twic_disable()    (PR_PRPC |= (uint8_t)PR_TWI_bm)
1065:/usr/lib/avr/include/avr/power.h **** #endif
1066:/usr/lib/avr/include/avr/power.h **** 
1067:/usr/lib/avr/include/avr/power.h **** #if defined(__AVR_HAVE_PRPC_USART0)
1068:/usr/lib/avr/include/avr/power.h **** #define power_usartc0_enable()  (PR_PRPC &= (uint8_t)~(PR_USART0_bm))
1069:/usr/lib/avr/include/avr/power.h **** #define power_usartc0_disable() (PR_PRPC |= (uint8_t)PR_USART0_bm)
1070:/usr/lib/avr/include/avr/power.h **** #endif
1071:/usr/lib/avr/include/avr/power.h **** 
1072:/usr/lib/avr/include/avr/power.h **** #if defined(__AVR_HAVE_PRPC_USART1)
1073:/usr/lib/avr/include/avr/power.h **** #define power_usartc1_enable()  (PR_PRPC &= (uint8_t)~(PR_USART1_bm))
1074:/usr/lib/avr/include/avr/power.h **** #define power_usartc1_disable() (PR_PRPC |= (uint8_t)PR_USART1_bm)
1075:/usr/lib/avr/include/avr/power.h **** #endif
1076:/usr/lib/avr/include/avr/power.h **** 
1077:/usr/lib/avr/include/avr/power.h **** #if defined(__AVR_HAVE_PRPD_HIRES)
1078:/usr/lib/avr/include/avr/power.h **** #define power_hiresd_enable()   (PR_PRPD &= (uint8_t)~(PR_HIRES_bm))
1079:/usr/lib/avr/include/avr/power.h **** #define power_hiresd_disable()  (PR_PRPD |= (uint8_t)PR_HIRES_bm)
1080:/usr/lib/avr/include/avr/power.h **** #endif
1081:/usr/lib/avr/include/avr/power.h **** 
1082:/usr/lib/avr/include/avr/power.h **** #if defined(__AVR_HAVE_PRPD_SPI)
1083:/usr/lib/avr/include/avr/power.h **** #define power_spid_enable()     (PR_PRPD &= (uint8_t)~(PR_SPI_bm))
1084:/usr/lib/avr/include/avr/power.h **** #define power_spid_disable()    (PR_PRPD |= (uint8_t)PR_SPI_bm)
1085:/usr/lib/avr/include/avr/power.h **** #endif
1086:/usr/lib/avr/include/avr/power.h **** 
1087:/usr/lib/avr/include/avr/power.h **** #if defined(__AVR_HAVE_PRPD_TC0)
1088:/usr/lib/avr/include/avr/power.h **** #define power_tc0d_enable()     (PR_PRPD &= (uint8_t)~(PR_TC0_bm))
1089:/usr/lib/avr/include/avr/power.h **** #define power_tc0d_disable()    (PR_PRPD |= (uint8_t)PR_TC0_bm)
1090:/usr/lib/avr/include/avr/power.h **** #endif
1091:/usr/lib/avr/include/avr/power.h **** 
1092:/usr/lib/avr/include/avr/power.h **** #if defined(__AVR_HAVE_PRPD_TC1)
1093:/usr/lib/avr/include/avr/power.h **** #define power_tc1d_enable()     (PR_PRPD &= (uint8_t)~(PR_TC1_bm))
1094:/usr/lib/avr/include/avr/power.h **** #define power_tc1d_disable()    (PR_PRPD |= (uint8_t)PR_TC1_bm)
1095:/usr/lib/avr/include/avr/power.h **** #endif
1096:/usr/lib/avr/include/avr/power.h **** 
1097:/usr/lib/avr/include/avr/power.h **** #if defined(__AVR_HAVE_PRPD_TC5)
1098:/usr/lib/avr/include/avr/power.h **** #define power_tc5d_enable()     (PR_PRPD  &= (uint8_t)~(PR_TC5_bm))
1099:/usr/lib/avr/include/avr/power.h **** #define power_tc5d_disable()    (PR_PRPD  |= (uint8_t)PR_TC5_bm)
1100:/usr/lib/avr/include/avr/power.h **** #endif
1101:/usr/lib/avr/include/avr/power.h **** 
1102:/usr/lib/avr/include/avr/power.h **** #if defined(__AVR_HAVE_PRPD_TWI)
1103:/usr/lib/avr/include/avr/power.h **** #define power_twid_enable()     (PR_PRPD &= (uint8_t)~(PR_TWI_bm))
1104:/usr/lib/avr/include/avr/power.h **** #define power_twid_disable()    (PR_PRPD |= (uint8_t)PR_TWI_bm)
1105:/usr/lib/avr/include/avr/power.h **** #endif
1106:/usr/lib/avr/include/avr/power.h **** 
1107:/usr/lib/avr/include/avr/power.h **** #if defined(__AVR_HAVE_PRPD_USART0)
1108:/usr/lib/avr/include/avr/power.h **** #define power_usartd0_enable()  (PR_PRPD &= (uint8_t)~(PR_USART0_bm))
1109:/usr/lib/avr/include/avr/power.h **** #define power_usartd0_disable() (PR_PRPD |= (uint8_t)PR_USART0_bm)
1110:/usr/lib/avr/include/avr/power.h **** #endif
1111:/usr/lib/avr/include/avr/power.h **** 
1112:/usr/lib/avr/include/avr/power.h **** #if defined(__AVR_HAVE_PRPD_USART1)
1113:/usr/lib/avr/include/avr/power.h **** #define power_usartd1_enable()  (PR_PRPD &= (uint8_t)~(PR_USART1_bm))
1114:/usr/lib/avr/include/avr/power.h **** #define power_usartd1_disable() (PR_PRPD |= (uint8_t)PR_USART1_bm)
1115:/usr/lib/avr/include/avr/power.h **** #endif
1116:/usr/lib/avr/include/avr/power.h **** 
1117:/usr/lib/avr/include/avr/power.h **** #if defined(__AVR_HAVE_PRPE_HIRES)
1118:/usr/lib/avr/include/avr/power.h **** #define power_hirese_enable()   (PR_PRPE &= (uint8_t)~(PR_HIRES_bm))
1119:/usr/lib/avr/include/avr/power.h **** #define power_hirese_disable()  (PR_PRPE |= (uint8_t)PR_HIRES_bm)
1120:/usr/lib/avr/include/avr/power.h **** #endif
1121:/usr/lib/avr/include/avr/power.h **** 
1122:/usr/lib/avr/include/avr/power.h **** #if defined(__AVR_HAVE_PRPE_SPI)
1123:/usr/lib/avr/include/avr/power.h **** #define power_spie_enable()     (PR_PRPE &= (uint8_t)~(PR_SPI_bm))
1124:/usr/lib/avr/include/avr/power.h **** #define power_spie_disable()    (PR_PRPE |= (uint8_t)PR_SPI_bm)
1125:/usr/lib/avr/include/avr/power.h **** #endif
1126:/usr/lib/avr/include/avr/power.h **** 
1127:/usr/lib/avr/include/avr/power.h **** #if defined(__AVR_HAVE_PRPE_TC0)
1128:/usr/lib/avr/include/avr/power.h **** #define power_tc0e_enable()     (PR_PRPE &= (uint8_t)~(PR_TC0_bm))
1129:/usr/lib/avr/include/avr/power.h **** #define power_tc0e_disable()    (PR_PRPE |= (uint8_t)PR_TC0_bm)
1130:/usr/lib/avr/include/avr/power.h **** #endif
1131:/usr/lib/avr/include/avr/power.h **** 
1132:/usr/lib/avr/include/avr/power.h **** #if defined(__AVR_HAVE_PRPE_TC1)
1133:/usr/lib/avr/include/avr/power.h **** #define power_tc1e_enable()     (PR_PRPE &= (uint8_t)~(PR_TC1_bm))
1134:/usr/lib/avr/include/avr/power.h **** #define power_tc1e_disable()    (PR_PRPE |= (uint8_t)PR_TC1_bm)
1135:/usr/lib/avr/include/avr/power.h **** #endif
1136:/usr/lib/avr/include/avr/power.h **** 
1137:/usr/lib/avr/include/avr/power.h **** #if defined(__AVR_HAVE_PRPE_TWI)
1138:/usr/lib/avr/include/avr/power.h **** #define power_twie_enable()     (PR_PRPE &= (uint8_t)~(PR_TWI_bm))
1139:/usr/lib/avr/include/avr/power.h **** #define power_twie_disable()    (PR_PRPE |= (uint8_t)PR_TWI_bm)
1140:/usr/lib/avr/include/avr/power.h **** #endif
1141:/usr/lib/avr/include/avr/power.h **** 
1142:/usr/lib/avr/include/avr/power.h **** #if defined(__AVR_HAVE_PRPE_USART0)
1143:/usr/lib/avr/include/avr/power.h **** #define power_usarte0_enable()  (PR_PRPE &= (uint8_t)~(PR_USART0_bm))
1144:/usr/lib/avr/include/avr/power.h **** #define power_usarte0_disable() (PR_PRPE |= (uint8_t)PR_USART0_bm)
1145:/usr/lib/avr/include/avr/power.h **** #endif
1146:/usr/lib/avr/include/avr/power.h **** 
1147:/usr/lib/avr/include/avr/power.h **** #if defined(__AVR_HAVE_PRPE_USART1)
1148:/usr/lib/avr/include/avr/power.h **** #define power_usarte1_enable()  (PR_PRPE &= (uint8_t)~(PR_USART1_bm))
1149:/usr/lib/avr/include/avr/power.h **** #define power_usarte1_disable() (PR_PRPE |= (uint8_t)PR_USART1_bm)
1150:/usr/lib/avr/include/avr/power.h **** #endif
1151:/usr/lib/avr/include/avr/power.h **** 
1152:/usr/lib/avr/include/avr/power.h **** #if defined(__AVR_HAVE_PRPF_HIRES)
1153:/usr/lib/avr/include/avr/power.h **** #define power_hiresf_enable()   (PR_PRPF &= (uint8_t)~(PR_HIRES_bm))
1154:/usr/lib/avr/include/avr/power.h **** #define power_hiresf_disable()  (PR_PRPF |= (uint8_t)PR_HIRES_bm)
1155:/usr/lib/avr/include/avr/power.h **** #endif
1156:/usr/lib/avr/include/avr/power.h **** 
1157:/usr/lib/avr/include/avr/power.h **** #if defined(__AVR_HAVE_PRPF_SPI)
1158:/usr/lib/avr/include/avr/power.h **** #define power_spif_enable()     (PR_PRPF &= (uint8_t)~(PR_SPI_bm))
1159:/usr/lib/avr/include/avr/power.h **** #define power_spif_disable()    (PR_PRPF |= (uint8_t)PR_SPI_bm)
1160:/usr/lib/avr/include/avr/power.h **** #endif
1161:/usr/lib/avr/include/avr/power.h **** 
1162:/usr/lib/avr/include/avr/power.h **** #if defined(__AVR_HAVE_PRPF_TC0)
1163:/usr/lib/avr/include/avr/power.h **** #define power_tc0f_enable()     (PR_PRPF &= (uint8_t)~(PR_TC0_bm))
1164:/usr/lib/avr/include/avr/power.h **** #define power_tc0f_disable()    (PR_PRPF |= (uint8_t)PR_TC0_bm)
1165:/usr/lib/avr/include/avr/power.h **** #endif
1166:/usr/lib/avr/include/avr/power.h **** 
1167:/usr/lib/avr/include/avr/power.h **** #if defined(__AVR_HAVE_PRPF_TC1)
1168:/usr/lib/avr/include/avr/power.h **** #define power_tc1f_enable()     (PR_PRPF &= (uint8_t)~(PR_TC1_bm))
1169:/usr/lib/avr/include/avr/power.h **** #define power_tc1f_disable()    (PR_PRPF |= (uint8_t)PR_TC1_bm)
1170:/usr/lib/avr/include/avr/power.h **** #endif
1171:/usr/lib/avr/include/avr/power.h **** 
1172:/usr/lib/avr/include/avr/power.h **** #if defined(__AVR_HAVE_PRPF_TWI)
1173:/usr/lib/avr/include/avr/power.h **** #define power_twif_enable()     (PR_PRPF &= (uint8_t)~(PR_TWI_bm))
1174:/usr/lib/avr/include/avr/power.h **** #define power_twif_disable()    (PR_PRPF |= (uint8_t)PR_TWI_bm)
1175:/usr/lib/avr/include/avr/power.h **** #endif
1176:/usr/lib/avr/include/avr/power.h **** 
1177:/usr/lib/avr/include/avr/power.h **** #if defined(__AVR_HAVE_PRPF_USART0)
1178:/usr/lib/avr/include/avr/power.h **** #define power_usartf0_enable()  (PR_PRPF &= (uint8_t)~(PR_USART0_bm))
1179:/usr/lib/avr/include/avr/power.h **** #define power_usartf0_disable() (PR_PRPF |= (uint8_t)PR_USART0_bm)
1180:/usr/lib/avr/include/avr/power.h **** #endif
1181:/usr/lib/avr/include/avr/power.h **** 
1182:/usr/lib/avr/include/avr/power.h **** #if defined(__AVR_HAVE_PRPF_USART1)
1183:/usr/lib/avr/include/avr/power.h **** #define power_usartf1_enable()  (PR_PRPF &= (uint8_t)~(PR_USART1_bm))
1184:/usr/lib/avr/include/avr/power.h **** #define power_usartf1_disable() (PR_PRPF |= (uint8_t)PR_USART1_bm)
1185:/usr/lib/avr/include/avr/power.h **** #endif
1186:/usr/lib/avr/include/avr/power.h **** 
1187:/usr/lib/avr/include/avr/power.h **** static __inline void
1188:/usr/lib/avr/include/avr/power.h **** __attribute__ ((__always_inline__))
1189:/usr/lib/avr/include/avr/power.h **** __power_all_enable()
1190:/usr/lib/avr/include/avr/power.h **** {
1191:/usr/lib/avr/include/avr/power.h **** #ifdef __AVR_HAVE_PRR
1192:/usr/lib/avr/include/avr/power.h ****     PRR &= (uint8_t)~(__AVR_HAVE_PRR);
1193:/usr/lib/avr/include/avr/power.h **** #endif
1194:/usr/lib/avr/include/avr/power.h **** 
1195:/usr/lib/avr/include/avr/power.h **** #ifdef __AVR_HAVE_PRR0
1196:/usr/lib/avr/include/avr/power.h ****     PRR0 &= (uint8_t)~(__AVR_HAVE_PRR0);
1197:/usr/lib/avr/include/avr/power.h **** #endif
1198:/usr/lib/avr/include/avr/power.h **** 
1199:/usr/lib/avr/include/avr/power.h **** #ifdef __AVR_HAVE_PRR1
1200:/usr/lib/avr/include/avr/power.h ****     PRR1 &= (uint8_t)~(__AVR_HAVE_PRR1);
1201:/usr/lib/avr/include/avr/power.h **** #endif
1202:/usr/lib/avr/include/avr/power.h **** 
1203:/usr/lib/avr/include/avr/power.h **** #ifdef __AVR_HAVE_PRR2
1204:/usr/lib/avr/include/avr/power.h ****    PRR2 &= (uint8_t)~(__AVR_HAVE_PRR2);
1205:/usr/lib/avr/include/avr/power.h **** #endif
1206:/usr/lib/avr/include/avr/power.h **** 
1207:/usr/lib/avr/include/avr/power.h **** #ifdef __AVR_HAVE_PRGEN
1208:/usr/lib/avr/include/avr/power.h ****     PR_PRGEN &= (uint8_t)~(__AVR_HAVE_PRGEN);
1209:/usr/lib/avr/include/avr/power.h **** #endif
1210:/usr/lib/avr/include/avr/power.h **** 
1211:/usr/lib/avr/include/avr/power.h **** #ifdef __AVR_HAVE_PRPA
1212:/usr/lib/avr/include/avr/power.h ****     PR_PRPA &= (uint8_t)~(__AVR_HAVE_PRPA);
1213:/usr/lib/avr/include/avr/power.h **** #endif
1214:/usr/lib/avr/include/avr/power.h **** 
1215:/usr/lib/avr/include/avr/power.h **** #ifdef __AVR_HAVE_PRPB
1216:/usr/lib/avr/include/avr/power.h ****     PR_PRPB &= (uint8_t)~(__AVR_HAVE_PRPB);
1217:/usr/lib/avr/include/avr/power.h **** #endif
1218:/usr/lib/avr/include/avr/power.h **** 
1219:/usr/lib/avr/include/avr/power.h **** #ifdef __AVR_HAVE_PRPC
1220:/usr/lib/avr/include/avr/power.h ****     PR_PRPC &= (uint8_t)~(__AVR_HAVE_PRPC);
1221:/usr/lib/avr/include/avr/power.h **** #endif
1222:/usr/lib/avr/include/avr/power.h **** 
1223:/usr/lib/avr/include/avr/power.h **** #ifdef __AVR_HAVE_PRPD
1224:/usr/lib/avr/include/avr/power.h ****     PR_PRPD &= (uint8_t)~(__AVR_HAVE_PRPD);
1225:/usr/lib/avr/include/avr/power.h **** #endif
1226:/usr/lib/avr/include/avr/power.h **** 
1227:/usr/lib/avr/include/avr/power.h **** #ifdef __AVR_HAVE_PRPE
1228:/usr/lib/avr/include/avr/power.h ****     PR_PRPE &= (uint8_t)~(__AVR_HAVE_PRPE);
1229:/usr/lib/avr/include/avr/power.h **** #endif
1230:/usr/lib/avr/include/avr/power.h **** 
1231:/usr/lib/avr/include/avr/power.h **** #ifdef __AVR_HAVE_PRPF
1232:/usr/lib/avr/include/avr/power.h ****     PR_PRPF &= (uint8_t)~(__AVR_HAVE_PRPF);
1233:/usr/lib/avr/include/avr/power.h **** #endif
1234:/usr/lib/avr/include/avr/power.h **** }
1235:/usr/lib/avr/include/avr/power.h **** 
1236:/usr/lib/avr/include/avr/power.h **** static __inline void
1237:/usr/lib/avr/include/avr/power.h **** __attribute__ ((__always_inline__))
1238:/usr/lib/avr/include/avr/power.h **** __power_all_disable()
1239:/usr/lib/avr/include/avr/power.h **** {
1240:/usr/lib/avr/include/avr/power.h **** #ifdef __AVR_HAVE_PRR
1241:/usr/lib/avr/include/avr/power.h ****     PRR |= (uint8_t)(__AVR_HAVE_PRR);
1242:/usr/lib/avr/include/avr/power.h **** #endif
1243:/usr/lib/avr/include/avr/power.h **** 
1244:/usr/lib/avr/include/avr/power.h **** #ifdef __AVR_HAVE_PRR0
1245:/usr/lib/avr/include/avr/power.h ****     PRR0 |= (uint8_t)(__AVR_HAVE_PRR0);
1246:/usr/lib/avr/include/avr/power.h **** #endif
1247:/usr/lib/avr/include/avr/power.h **** 
1248:/usr/lib/avr/include/avr/power.h **** #ifdef __AVR_HAVE_PRR1
1249:/usr/lib/avr/include/avr/power.h ****     PRR1 |= (uint8_t)(__AVR_HAVE_PRR1);
1250:/usr/lib/avr/include/avr/power.h **** #endif
1251:/usr/lib/avr/include/avr/power.h **** 
1252:/usr/lib/avr/include/avr/power.h **** #ifdef __AVR_HAVE_PRR2
1253:/usr/lib/avr/include/avr/power.h ****     PRR2 |= (uint8_t)(__AVR_HAVE_PRR2);
1254:/usr/lib/avr/include/avr/power.h **** #endif
1255:/usr/lib/avr/include/avr/power.h **** 
1256:/usr/lib/avr/include/avr/power.h **** #ifdef __AVR_HAVE_PRGEN
1257:/usr/lib/avr/include/avr/power.h ****     PR_PRGEN |= (uint8_t)(__AVR_HAVE_PRGEN);
1258:/usr/lib/avr/include/avr/power.h **** #endif
1259:/usr/lib/avr/include/avr/power.h **** 
1260:/usr/lib/avr/include/avr/power.h **** #ifdef __AVR_HAVE_PRPA
1261:/usr/lib/avr/include/avr/power.h ****     PR_PRPA |= (uint8_t)(__AVR_HAVE_PRPA);
1262:/usr/lib/avr/include/avr/power.h **** #endif
1263:/usr/lib/avr/include/avr/power.h **** 
1264:/usr/lib/avr/include/avr/power.h **** #ifdef __AVR_HAVE_PRPB
1265:/usr/lib/avr/include/avr/power.h ****     PR_PRPB |= (uint8_t)(__AVR_HAVE_PRPB);
1266:/usr/lib/avr/include/avr/power.h **** #endif
1267:/usr/lib/avr/include/avr/power.h **** 
1268:/usr/lib/avr/include/avr/power.h **** #ifdef __AVR_HAVE_PRPC
1269:/usr/lib/avr/include/avr/power.h ****     PR_PRPC |= (uint8_t)(__AVR_HAVE_PRPC);
1270:/usr/lib/avr/include/avr/power.h **** #endif
1271:/usr/lib/avr/include/avr/power.h **** 
1272:/usr/lib/avr/include/avr/power.h **** #ifdef __AVR_HAVE_PRPD
1273:/usr/lib/avr/include/avr/power.h ****     PR_PRPD |= (uint8_t)(__AVR_HAVE_PRPD);
1274:/usr/lib/avr/include/avr/power.h **** #endif
1275:/usr/lib/avr/include/avr/power.h **** 
1276:/usr/lib/avr/include/avr/power.h **** #ifdef __AVR_HAVE_PRPE
1277:/usr/lib/avr/include/avr/power.h ****     PR_PRPE |= (uint8_t)(__AVR_HAVE_PRPE);
1278:/usr/lib/avr/include/avr/power.h **** #endif
1279:/usr/lib/avr/include/avr/power.h **** 
1280:/usr/lib/avr/include/avr/power.h **** #ifdef __AVR_HAVE_PRPF
1281:/usr/lib/avr/include/avr/power.h ****     PR_PRPF |= (uint8_t)(__AVR_HAVE_PRPF);
1282:/usr/lib/avr/include/avr/power.h **** #endif
1283:/usr/lib/avr/include/avr/power.h **** }
1284:/usr/lib/avr/include/avr/power.h **** 
1285:/usr/lib/avr/include/avr/power.h **** #ifndef __DOXYGEN__
1286:/usr/lib/avr/include/avr/power.h **** #ifndef power_all_enable
1287:/usr/lib/avr/include/avr/power.h **** #define power_all_enable() __power_all_enable()
1288:/usr/lib/avr/include/avr/power.h **** #endif
1289:/usr/lib/avr/include/avr/power.h **** 
1290:/usr/lib/avr/include/avr/power.h **** #ifndef power_all_disable
1291:/usr/lib/avr/include/avr/power.h **** #define power_all_disable() __power_all_disable()
1292:/usr/lib/avr/include/avr/power.h **** #endif
1293:/usr/lib/avr/include/avr/power.h **** #endif	/* !__DOXYGEN__ */
1294:/usr/lib/avr/include/avr/power.h **** 
1295:/usr/lib/avr/include/avr/power.h **** 
1296:/usr/lib/avr/include/avr/power.h **** #if defined(__AVR_AT90CAN32__) \
1297:/usr/lib/avr/include/avr/power.h **** || defined(__AVR_AT90CAN64__) \
1298:/usr/lib/avr/include/avr/power.h **** || defined(__AVR_AT90CAN128__) \
1299:/usr/lib/avr/include/avr/power.h **** || defined(__AVR_AT90PWM1__) \
1300:/usr/lib/avr/include/avr/power.h **** || defined(__AVR_AT90PWM2__) \
1301:/usr/lib/avr/include/avr/power.h **** || defined(__AVR_AT90PWM2B__) \
1302:/usr/lib/avr/include/avr/power.h **** || defined(__AVR_AT90PWM3__) \
1303:/usr/lib/avr/include/avr/power.h **** || defined(__AVR_AT90PWM3B__) \
1304:/usr/lib/avr/include/avr/power.h **** || defined(__AVR_AT90PWM81__) \
1305:/usr/lib/avr/include/avr/power.h **** || defined(__AVR_AT90PWM161__) \
1306:/usr/lib/avr/include/avr/power.h **** || defined(__AVR_AT90PWM216__) \
1307:/usr/lib/avr/include/avr/power.h **** || defined(__AVR_AT90PWM316__) \
1308:/usr/lib/avr/include/avr/power.h **** || defined(__AVR_AT90SCR100__) \
1309:/usr/lib/avr/include/avr/power.h **** || defined(__AVR_AT90USB646__) \
1310:/usr/lib/avr/include/avr/power.h **** || defined(__AVR_AT90USB647__) \
1311:/usr/lib/avr/include/avr/power.h **** || defined(__AVR_AT90USB82__) \
1312:/usr/lib/avr/include/avr/power.h **** || defined(__AVR_AT90USB1286__) \
1313:/usr/lib/avr/include/avr/power.h **** || defined(__AVR_AT90USB1287__) \
1314:/usr/lib/avr/include/avr/power.h **** || defined(__AVR_AT90USB162__) \
1315:/usr/lib/avr/include/avr/power.h **** || defined(__AVR_ATA5505__) \
1316:/usr/lib/avr/include/avr/power.h **** || defined(__AVR_ATA5272__) \
1317:/usr/lib/avr/include/avr/power.h **** || defined(__AVR_ATA6617C__) \
1318:/usr/lib/avr/include/avr/power.h **** || defined(__AVR_ATA664251__) \
1319:/usr/lib/avr/include/avr/power.h **** || defined(__AVR_ATmega1280__) \
1320:/usr/lib/avr/include/avr/power.h **** || defined(__AVR_ATmega1281__) \
1321:/usr/lib/avr/include/avr/power.h **** || defined(__AVR_ATmega1284__) \
1322:/usr/lib/avr/include/avr/power.h **** || defined(__AVR_ATmega128RFA1__) \
1323:/usr/lib/avr/include/avr/power.h **** || defined(__AVR_ATmega1284RFR2__) \
1324:/usr/lib/avr/include/avr/power.h **** || defined(__AVR_ATmega128RFR2__) \
1325:/usr/lib/avr/include/avr/power.h **** || defined(__AVR_ATmega1284P__) \
1326:/usr/lib/avr/include/avr/power.h **** || defined(__AVR_ATmega162__) \
1327:/usr/lib/avr/include/avr/power.h **** || defined(__AVR_ATmega164A__) \
1328:/usr/lib/avr/include/avr/power.h **** || defined(__AVR_ATmega164P__) \
1329:/usr/lib/avr/include/avr/power.h **** || defined(__AVR_ATmega164PA__) \
1330:/usr/lib/avr/include/avr/power.h **** || defined(__AVR_ATmega165__) \
1331:/usr/lib/avr/include/avr/power.h **** || defined(__AVR_ATmega165A__) \
1332:/usr/lib/avr/include/avr/power.h **** || defined(__AVR_ATmega165P__) \
1333:/usr/lib/avr/include/avr/power.h **** || defined(__AVR_ATmega165PA__) \
1334:/usr/lib/avr/include/avr/power.h **** || defined(__AVR_ATmega168__) \
1335:/usr/lib/avr/include/avr/power.h **** || defined(__AVR_ATmega168A__) \
1336:/usr/lib/avr/include/avr/power.h **** || defined(__AVR_ATmega168P__) \
1337:/usr/lib/avr/include/avr/power.h **** || defined(__AVR_ATmega168PA__) \
1338:/usr/lib/avr/include/avr/power.h **** || defined(__AVR_ATmega168PB__) \
1339:/usr/lib/avr/include/avr/power.h **** || defined(__AVR_ATmega169__) \
1340:/usr/lib/avr/include/avr/power.h **** || defined(__AVR_ATmega169A__) \
1341:/usr/lib/avr/include/avr/power.h **** || defined(__AVR_ATmega169P__) \
1342:/usr/lib/avr/include/avr/power.h **** || defined(__AVR_ATmega169PA__) \
1343:/usr/lib/avr/include/avr/power.h **** || defined(__AVR_ATmega16M1__) \
1344:/usr/lib/avr/include/avr/power.h **** || defined(__AVR_ATmega16U2__) \
1345:/usr/lib/avr/include/avr/power.h **** || defined(__AVR_ATmega16U4__) \
1346:/usr/lib/avr/include/avr/power.h **** || defined(__AVR_ATmega2560__) \
1347:/usr/lib/avr/include/avr/power.h **** || defined(__AVR_ATmega2561__) \
1348:/usr/lib/avr/include/avr/power.h **** || defined(__AVR_ATmega2564RFR2__) \
1349:/usr/lib/avr/include/avr/power.h **** || defined(__AVR_ATmega256RFR2__) \
1350:/usr/lib/avr/include/avr/power.h **** || defined(__AVR_ATmega324A__) \
1351:/usr/lib/avr/include/avr/power.h **** || defined(__AVR_ATmega324P__) \
1352:/usr/lib/avr/include/avr/power.h **** || defined(__AVR_ATmega324PA__) \
1353:/usr/lib/avr/include/avr/power.h **** || defined(__AVR_ATmega324PB__) \
1354:/usr/lib/avr/include/avr/power.h **** || defined(__AVR_ATmega325__) \
1355:/usr/lib/avr/include/avr/power.h **** || defined(__AVR_ATmega325A__) \
1356:/usr/lib/avr/include/avr/power.h **** || defined(__AVR_ATmega325P__) \
1357:/usr/lib/avr/include/avr/power.h **** || defined(__AVR_ATmega325PA__) \
1358:/usr/lib/avr/include/avr/power.h **** || defined(__AVR_ATmega3250__) \
1359:/usr/lib/avr/include/avr/power.h **** || defined(__AVR_ATmega3250A__) \
1360:/usr/lib/avr/include/avr/power.h **** || defined(__AVR_ATmega3250P__) \
1361:/usr/lib/avr/include/avr/power.h **** || defined(__AVR_ATmega3250PA__) \
1362:/usr/lib/avr/include/avr/power.h **** || defined(__AVR_ATmega328__) \
1363:/usr/lib/avr/include/avr/power.h **** || defined(__AVR_ATmega328P__) \
1364:/usr/lib/avr/include/avr/power.h **** || defined(__AVR_ATmega328PB__) \
1365:/usr/lib/avr/include/avr/power.h **** || defined(__AVR_ATmega329__) \
1366:/usr/lib/avr/include/avr/power.h **** || defined(__AVR_ATmega329A__) \
1367:/usr/lib/avr/include/avr/power.h **** || defined(__AVR_ATmega329P__) \
1368:/usr/lib/avr/include/avr/power.h **** || defined(__AVR_ATmega329PA__) \
1369:/usr/lib/avr/include/avr/power.h **** || defined(__AVR_ATmega3290__) \
1370:/usr/lib/avr/include/avr/power.h **** || defined(__AVR_ATmega3290A__) \
1371:/usr/lib/avr/include/avr/power.h **** || defined(__AVR_ATmega3290P__) \
1372:/usr/lib/avr/include/avr/power.h **** || defined(__AVR_ATmega3290PA__) \
1373:/usr/lib/avr/include/avr/power.h **** || defined(__AVR_ATmega32C1__) \
1374:/usr/lib/avr/include/avr/power.h **** || defined(__AVR_ATmega32M1__) \
1375:/usr/lib/avr/include/avr/power.h **** || defined(__AVR_ATmega32U2__) \
1376:/usr/lib/avr/include/avr/power.h **** || defined(__AVR_ATmega32U4__) \
1377:/usr/lib/avr/include/avr/power.h **** || defined(__AVR_ATmega32U6__) \
1378:/usr/lib/avr/include/avr/power.h **** || defined(__AVR_ATmega48__) \
1379:/usr/lib/avr/include/avr/power.h **** || defined(__AVR_ATmega48A__) \
1380:/usr/lib/avr/include/avr/power.h **** || defined(__AVR_ATmega48PA__) \
1381:/usr/lib/avr/include/avr/power.h **** || defined(__AVR_ATmega48PB__) \
1382:/usr/lib/avr/include/avr/power.h **** || defined(__AVR_ATmega48P__) \
1383:/usr/lib/avr/include/avr/power.h **** || defined(__AVR_ATmega640__) \
1384:/usr/lib/avr/include/avr/power.h **** || defined(__AVR_ATmega649P__) \
1385:/usr/lib/avr/include/avr/power.h **** || defined(__AVR_ATmega644__) \
1386:/usr/lib/avr/include/avr/power.h **** || defined(__AVR_ATmega644A__) \
1387:/usr/lib/avr/include/avr/power.h **** || defined(__AVR_ATmega644P__) \
1388:/usr/lib/avr/include/avr/power.h **** || defined(__AVR_ATmega644PA__) \
1389:/usr/lib/avr/include/avr/power.h **** || defined(__AVR_ATmega645__) \
1390:/usr/lib/avr/include/avr/power.h **** || defined(__AVR_ATmega645A__) \
1391:/usr/lib/avr/include/avr/power.h **** || defined(__AVR_ATmega645P__) \
1392:/usr/lib/avr/include/avr/power.h **** || defined(__AVR_ATmega6450__) \
1393:/usr/lib/avr/include/avr/power.h **** || defined(__AVR_ATmega6450A__) \
1394:/usr/lib/avr/include/avr/power.h **** || defined(__AVR_ATmega6450P__) \
1395:/usr/lib/avr/include/avr/power.h **** || defined(__AVR_ATmega649__) \
1396:/usr/lib/avr/include/avr/power.h **** || defined(__AVR_ATmega649A__) \
1397:/usr/lib/avr/include/avr/power.h **** || defined(__AVR_ATmega64M1__) \
1398:/usr/lib/avr/include/avr/power.h **** || defined(__AVR_ATmega64C1__) \
1399:/usr/lib/avr/include/avr/power.h **** || defined(__AVR_ATmega88A__) \
1400:/usr/lib/avr/include/avr/power.h **** || defined(__AVR_ATmega88PA__) \
1401:/usr/lib/avr/include/avr/power.h **** || defined(__AVR_ATmega88PB__) \
1402:/usr/lib/avr/include/avr/power.h **** || defined(__AVR_ATmega6490__) \
1403:/usr/lib/avr/include/avr/power.h **** || defined(__AVR_ATmega6490A__) \
1404:/usr/lib/avr/include/avr/power.h **** || defined(__AVR_ATmega6490P__) \
1405:/usr/lib/avr/include/avr/power.h **** || defined(__AVR_ATmega644RFR2__) \
1406:/usr/lib/avr/include/avr/power.h **** || defined(__AVR_ATmega64RFR2__) \
1407:/usr/lib/avr/include/avr/power.h **** || defined(__AVR_ATmega88__) \
1408:/usr/lib/avr/include/avr/power.h **** || defined(__AVR_ATmega88P__) \
1409:/usr/lib/avr/include/avr/power.h **** || defined(__AVR_ATmega8U2__) \
1410:/usr/lib/avr/include/avr/power.h **** || defined(__AVR_ATmega16U2__) \
1411:/usr/lib/avr/include/avr/power.h **** || defined(__AVR_ATmega32U2__) \
1412:/usr/lib/avr/include/avr/power.h **** || defined(__AVR_ATtiny48__) \
1413:/usr/lib/avr/include/avr/power.h **** || defined(__AVR_ATtiny88__) \
1414:/usr/lib/avr/include/avr/power.h **** || defined(__AVR_ATtiny87__) \
1415:/usr/lib/avr/include/avr/power.h **** || defined(__AVR_ATtiny167__) \
1416:/usr/lib/avr/include/avr/power.h **** || defined(__DOXYGEN__)
1417:/usr/lib/avr/include/avr/power.h **** 
1418:/usr/lib/avr/include/avr/power.h **** 
1419:/usr/lib/avr/include/avr/power.h **** /** \addtogroup avr_power
1420:/usr/lib/avr/include/avr/power.h **** 
1421:/usr/lib/avr/include/avr/power.h **** Some of the newer AVRs contain a System Clock Prescale Register (CLKPR) that
1422:/usr/lib/avr/include/avr/power.h **** allows you to decrease the system clock frequency and the power consumption
1423:/usr/lib/avr/include/avr/power.h **** when the need for processing power is low.
1424:/usr/lib/avr/include/avr/power.h **** On some earlier AVRs (ATmega103, ATmega64, ATmega128), similar
1425:/usr/lib/avr/include/avr/power.h **** functionality can be achieved through the XTAL Divide Control Register.
1426:/usr/lib/avr/include/avr/power.h **** Below are two macros and an enumerated type that can be used to
1427:/usr/lib/avr/include/avr/power.h **** interface to the Clock Prescale Register or
1428:/usr/lib/avr/include/avr/power.h **** XTAL Divide Control Register.
1429:/usr/lib/avr/include/avr/power.h **** 
1430:/usr/lib/avr/include/avr/power.h **** \note Not all AVR devices have a clock prescaler. On those devices
1431:/usr/lib/avr/include/avr/power.h **** without a Clock Prescale Register or XTAL Divide Control Register, these
1432:/usr/lib/avr/include/avr/power.h **** macros are not available.
1433:/usr/lib/avr/include/avr/power.h **** */
1434:/usr/lib/avr/include/avr/power.h **** 
1435:/usr/lib/avr/include/avr/power.h **** 
1436:/usr/lib/avr/include/avr/power.h **** /** \addtogroup avr_power
1437:/usr/lib/avr/include/avr/power.h **** \code 
1438:/usr/lib/avr/include/avr/power.h **** typedef enum
1439:/usr/lib/avr/include/avr/power.h **** {
1440:/usr/lib/avr/include/avr/power.h ****     clock_div_1 = 0,
1441:/usr/lib/avr/include/avr/power.h ****     clock_div_2 = 1,
1442:/usr/lib/avr/include/avr/power.h ****     clock_div_4 = 2,
1443:/usr/lib/avr/include/avr/power.h ****     clock_div_8 = 3,
1444:/usr/lib/avr/include/avr/power.h ****     clock_div_16 = 4,
1445:/usr/lib/avr/include/avr/power.h ****     clock_div_32 = 5,
1446:/usr/lib/avr/include/avr/power.h ****     clock_div_64 = 6,
1447:/usr/lib/avr/include/avr/power.h ****     clock_div_128 = 7,
1448:/usr/lib/avr/include/avr/power.h ****     clock_div_256 = 8,
1449:/usr/lib/avr/include/avr/power.h ****     clock_div_1_rc = 15, // ATmega128RFA1 only
1450:/usr/lib/avr/include/avr/power.h **** } clock_div_t;
1451:/usr/lib/avr/include/avr/power.h **** \endcode
1452:/usr/lib/avr/include/avr/power.h **** Clock prescaler setting enumerations for device using
1453:/usr/lib/avr/include/avr/power.h **** System Clock Prescale Register.
1454:/usr/lib/avr/include/avr/power.h **** 
1455:/usr/lib/avr/include/avr/power.h **** \code
1456:/usr/lib/avr/include/avr/power.h **** typedef enum
1457:/usr/lib/avr/include/avr/power.h **** {
1458:/usr/lib/avr/include/avr/power.h ****     clock_div_1 = 1,
1459:/usr/lib/avr/include/avr/power.h ****     clock_div_2 = 2,
1460:/usr/lib/avr/include/avr/power.h ****     clock_div_4 = 4,
1461:/usr/lib/avr/include/avr/power.h ****     clock_div_8 = 8,
1462:/usr/lib/avr/include/avr/power.h ****     clock_div_16 = 16,
1463:/usr/lib/avr/include/avr/power.h ****     clock_div_32 = 32,
1464:/usr/lib/avr/include/avr/power.h ****     clock_div_64 = 64,
1465:/usr/lib/avr/include/avr/power.h ****     clock_div_128 = 128
1466:/usr/lib/avr/include/avr/power.h **** } clock_div_t;
1467:/usr/lib/avr/include/avr/power.h **** \endcode
1468:/usr/lib/avr/include/avr/power.h **** Clock prescaler setting enumerations for device using
1469:/usr/lib/avr/include/avr/power.h **** XTAL Divide Control Register.
1470:/usr/lib/avr/include/avr/power.h **** 
1471:/usr/lib/avr/include/avr/power.h **** */
1472:/usr/lib/avr/include/avr/power.h **** #ifndef __DOXYGEN__
1473:/usr/lib/avr/include/avr/power.h **** typedef enum
1474:/usr/lib/avr/include/avr/power.h **** {
1475:/usr/lib/avr/include/avr/power.h ****     clock_div_1 = 0,
1476:/usr/lib/avr/include/avr/power.h ****     clock_div_2 = 1,
1477:/usr/lib/avr/include/avr/power.h ****     clock_div_4 = 2,
1478:/usr/lib/avr/include/avr/power.h ****     clock_div_8 = 3,
1479:/usr/lib/avr/include/avr/power.h ****     clock_div_16 = 4,
1480:/usr/lib/avr/include/avr/power.h ****     clock_div_32 = 5,
1481:/usr/lib/avr/include/avr/power.h ****     clock_div_64 = 6,
1482:/usr/lib/avr/include/avr/power.h ****     clock_div_128 = 7,
1483:/usr/lib/avr/include/avr/power.h ****     clock_div_256 = 8
1484:/usr/lib/avr/include/avr/power.h **** #if defined(__AVR_ATmega128RFA1__) \
1485:/usr/lib/avr/include/avr/power.h **** || defined(__AVR_ATmega2564RFR2__) \
1486:/usr/lib/avr/include/avr/power.h **** || defined(__AVR_ATmega1284RFR2__) \
1487:/usr/lib/avr/include/avr/power.h **** || defined(__AVR_ATmega644RFR2__) \
1488:/usr/lib/avr/include/avr/power.h **** || defined(__AVR_ATmega256RFR2__) \
1489:/usr/lib/avr/include/avr/power.h **** || defined(__AVR_ATmega128RFR2__) \
1490:/usr/lib/avr/include/avr/power.h **** || defined(__AVR_ATmega64RFR2__)
1491:/usr/lib/avr/include/avr/power.h ****     , clock_div_1_rc = 15
1492:/usr/lib/avr/include/avr/power.h **** #endif
1493:/usr/lib/avr/include/avr/power.h **** } clock_div_t;
1494:/usr/lib/avr/include/avr/power.h **** 
1495:/usr/lib/avr/include/avr/power.h **** static __inline__ void clock_prescale_set(clock_div_t) __attribute__((__always_inline__));
1496:/usr/lib/avr/include/avr/power.h **** #endif	/* !__DOXYGEN__ */
1497:/usr/lib/avr/include/avr/power.h **** 
1498:/usr/lib/avr/include/avr/power.h **** /**
1499:/usr/lib/avr/include/avr/power.h ****    \ingroup avr_power
1500:/usr/lib/avr/include/avr/power.h ****    \fn clock_prescale_set(clock_div_t x)
1501:/usr/lib/avr/include/avr/power.h **** 
1502:/usr/lib/avr/include/avr/power.h **** Set the clock prescaler register select bits, selecting a system clock
1503:/usr/lib/avr/include/avr/power.h **** division setting. This function is inlined, even if compiler
1504:/usr/lib/avr/include/avr/power.h **** optimizations are disabled.
1505:/usr/lib/avr/include/avr/power.h **** 
1506:/usr/lib/avr/include/avr/power.h **** The type of \c x is \c clock_div_t.
1507:/usr/lib/avr/include/avr/power.h **** 
1508:/usr/lib/avr/include/avr/power.h **** \note For device with XTAL Divide Control Register (XDIV), \c x can actually range
1509:/usr/lib/avr/include/avr/power.h **** from 1 to 129. Thus, one does not need to use \c clock_div_t type as argument.
1510:/usr/lib/avr/include/avr/power.h **** */
1511:/usr/lib/avr/include/avr/power.h **** void clock_prescale_set(clock_div_t __x)
1512:/usr/lib/avr/include/avr/power.h **** {
1513:/usr/lib/avr/include/avr/power.h ****     uint8_t __tmp = _BV(CLKPCE);
1514:/usr/lib/avr/include/avr/power.h ****     __asm__ __volatile__ (
 827               		.loc 4 1514 0
 828 001c 90E0      		ldi r25,0
 829 001e 80E8      		ldi r24,lo8(-128)
 830               	/* #APP */
 831               	 ;  1514 "/usr/lib/avr/include/avr/power.h" 1
 832 0020 0FB6      		in __tmp_reg__,__SREG__
 833 0022 F894      		cli
 834 0024 8093 6100 		sts 97, r24
 835 0028 9093 6100 		sts 97, r25
 836 002c 0FBE      		out __SREG__, __tmp_reg__
 837               	 ;  0 "" 2
 838               	.LVL16:
 839               	/* #NOAPP */
 840               	.LBE28:
 841               	.LBE27:
 842               	.LBB29:
 843               	.LBB30:
 844               		.file 5 "../../LUFA/Drivers/Peripheral/AVR8/Serial_AVR8.h"
   1:../../LUFA/Drivers/Peripheral/AVR8/Serial_AVR8.h **** /*
   2:../../LUFA/Drivers/Peripheral/AVR8/Serial_AVR8.h ****              LUFA Library
   3:../../LUFA/Drivers/Peripheral/AVR8/Serial_AVR8.h ****      Copyright (C) Dean Camera, 2011.
   4:../../LUFA/Drivers/Peripheral/AVR8/Serial_AVR8.h **** 
   5:../../LUFA/Drivers/Peripheral/AVR8/Serial_AVR8.h ****   dean [at] fourwalledcubicle [dot] com
   6:../../LUFA/Drivers/Peripheral/AVR8/Serial_AVR8.h ****            www.lufa-lib.org
   7:../../LUFA/Drivers/Peripheral/AVR8/Serial_AVR8.h **** */
   8:../../LUFA/Drivers/Peripheral/AVR8/Serial_AVR8.h **** 
   9:../../LUFA/Drivers/Peripheral/AVR8/Serial_AVR8.h **** /*
  10:../../LUFA/Drivers/Peripheral/AVR8/Serial_AVR8.h ****   Copyright 2011  Dean Camera (dean [at] fourwalledcubicle [dot] com)
  11:../../LUFA/Drivers/Peripheral/AVR8/Serial_AVR8.h **** 
  12:../../LUFA/Drivers/Peripheral/AVR8/Serial_AVR8.h ****   Permission to use, copy, modify, distribute, and sell this
  13:../../LUFA/Drivers/Peripheral/AVR8/Serial_AVR8.h ****   software and its documentation for any purpose is hereby granted
  14:../../LUFA/Drivers/Peripheral/AVR8/Serial_AVR8.h ****   without fee, provided that the above copyright notice appear in
  15:../../LUFA/Drivers/Peripheral/AVR8/Serial_AVR8.h ****   all copies and that both that the copyright notice and this
  16:../../LUFA/Drivers/Peripheral/AVR8/Serial_AVR8.h ****   permission notice and warranty disclaimer appear in supporting
  17:../../LUFA/Drivers/Peripheral/AVR8/Serial_AVR8.h ****   documentation, and that the name of the author not be used in
  18:../../LUFA/Drivers/Peripheral/AVR8/Serial_AVR8.h ****   advertising or publicity pertaining to distribution of the
  19:../../LUFA/Drivers/Peripheral/AVR8/Serial_AVR8.h ****   software without specific, written prior permission.
  20:../../LUFA/Drivers/Peripheral/AVR8/Serial_AVR8.h **** 
  21:../../LUFA/Drivers/Peripheral/AVR8/Serial_AVR8.h ****   The author disclaim all warranties with regard to this
  22:../../LUFA/Drivers/Peripheral/AVR8/Serial_AVR8.h ****   software, including all implied warranties of merchantability
  23:../../LUFA/Drivers/Peripheral/AVR8/Serial_AVR8.h ****   and fitness.  In no event shall the author be liable for any
  24:../../LUFA/Drivers/Peripheral/AVR8/Serial_AVR8.h ****   special, indirect or consequential damages or any damages
  25:../../LUFA/Drivers/Peripheral/AVR8/Serial_AVR8.h ****   whatsoever resulting from loss of use, data or profits, whether
  26:../../LUFA/Drivers/Peripheral/AVR8/Serial_AVR8.h ****   in an action of contract, negligence or other tortious action,
  27:../../LUFA/Drivers/Peripheral/AVR8/Serial_AVR8.h ****   arising out of or in connection with the use or performance of
  28:../../LUFA/Drivers/Peripheral/AVR8/Serial_AVR8.h ****   this software.
  29:../../LUFA/Drivers/Peripheral/AVR8/Serial_AVR8.h **** */
  30:../../LUFA/Drivers/Peripheral/AVR8/Serial_AVR8.h **** 
  31:../../LUFA/Drivers/Peripheral/AVR8/Serial_AVR8.h **** /** \file
  32:../../LUFA/Drivers/Peripheral/AVR8/Serial_AVR8.h ****  *  \brief Serial USART Peripheral Driver (AVR8)
  33:../../LUFA/Drivers/Peripheral/AVR8/Serial_AVR8.h ****  *
  34:../../LUFA/Drivers/Peripheral/AVR8/Serial_AVR8.h ****  *  On-chip serial USART driver for the 8-bit AVR microcontrollers.
  35:../../LUFA/Drivers/Peripheral/AVR8/Serial_AVR8.h ****  *
  36:../../LUFA/Drivers/Peripheral/AVR8/Serial_AVR8.h ****  *  \note This file should not be included directly. It is automatically included as needed by the 
  37:../../LUFA/Drivers/Peripheral/AVR8/Serial_AVR8.h ****  *        dispatch header located in LUFA/Drivers/Peripheral/Serial.h.
  38:../../LUFA/Drivers/Peripheral/AVR8/Serial_AVR8.h ****  */
  39:../../LUFA/Drivers/Peripheral/AVR8/Serial_AVR8.h **** 
  40:../../LUFA/Drivers/Peripheral/AVR8/Serial_AVR8.h **** /** \ingroup Group_Serial
  41:../../LUFA/Drivers/Peripheral/AVR8/Serial_AVR8.h ****  *  \defgroup Group_Serial_AVR8 Serial USART Peripheral Driver (AVR8)
  42:../../LUFA/Drivers/Peripheral/AVR8/Serial_AVR8.h ****  *
  43:../../LUFA/Drivers/Peripheral/AVR8/Serial_AVR8.h ****  *  \section Sec_ModDescription Module Description
  44:../../LUFA/Drivers/Peripheral/AVR8/Serial_AVR8.h ****  *  On-chip serial USART driver for the 8-bit AVR microcontrollers.
  45:../../LUFA/Drivers/Peripheral/AVR8/Serial_AVR8.h ****  *
  46:../../LUFA/Drivers/Peripheral/AVR8/Serial_AVR8.h ****  *  \note This file should not be included directly. It is automatically included as needed by the 
  47:../../LUFA/Drivers/Peripheral/AVR8/Serial_AVR8.h ****  *        dispatch header located in LUFA/Drivers/Peripheral/Serial.h.
  48:../../LUFA/Drivers/Peripheral/AVR8/Serial_AVR8.h ****  *
  49:../../LUFA/Drivers/Peripheral/AVR8/Serial_AVR8.h ****  *  \section Sec_ExampleUsage Example Usage
  50:../../LUFA/Drivers/Peripheral/AVR8/Serial_AVR8.h ****  *  The following snippet is an example of how this module may be used within a typical
  51:../../LUFA/Drivers/Peripheral/AVR8/Serial_AVR8.h ****  *  application.
  52:../../LUFA/Drivers/Peripheral/AVR8/Serial_AVR8.h ****  *
  53:../../LUFA/Drivers/Peripheral/AVR8/Serial_AVR8.h ****  *  \code
  54:../../LUFA/Drivers/Peripheral/AVR8/Serial_AVR8.h ****  *      // Initialize the serial USART driver before first use, with 9600 baud (and no double-speed
  55:../../LUFA/Drivers/Peripheral/AVR8/Serial_AVR8.h ****  *      Serial_Init(9600, false);
  56:../../LUFA/Drivers/Peripheral/AVR8/Serial_AVR8.h ****  *
  57:../../LUFA/Drivers/Peripheral/AVR8/Serial_AVR8.h ****  *      // Send a string through the USART
  58:../../LUFA/Drivers/Peripheral/AVR8/Serial_AVR8.h ****  *      Serial_TxString("Test String\r\n");
  59:../../LUFA/Drivers/Peripheral/AVR8/Serial_AVR8.h ****  *
  60:../../LUFA/Drivers/Peripheral/AVR8/Serial_AVR8.h ****  *      // Receive a byte through the USART
  61:../../LUFA/Drivers/Peripheral/AVR8/Serial_AVR8.h ****  *      uint8_t DataByte = Serial_RxByte();
  62:../../LUFA/Drivers/Peripheral/AVR8/Serial_AVR8.h ****  *  \endcode
  63:../../LUFA/Drivers/Peripheral/AVR8/Serial_AVR8.h ****  *
  64:../../LUFA/Drivers/Peripheral/AVR8/Serial_AVR8.h ****  *  @{
  65:../../LUFA/Drivers/Peripheral/AVR8/Serial_AVR8.h ****  */
  66:../../LUFA/Drivers/Peripheral/AVR8/Serial_AVR8.h **** 
  67:../../LUFA/Drivers/Peripheral/AVR8/Serial_AVR8.h **** #ifndef __SERIAL_AVR8_H__
  68:../../LUFA/Drivers/Peripheral/AVR8/Serial_AVR8.h **** #define __SERIAL_AVR8_H__
  69:../../LUFA/Drivers/Peripheral/AVR8/Serial_AVR8.h **** 
  70:../../LUFA/Drivers/Peripheral/AVR8/Serial_AVR8.h **** 	/* Includes: */
  71:../../LUFA/Drivers/Peripheral/AVR8/Serial_AVR8.h **** 		#include "../../../Common/Common.h"
  72:../../LUFA/Drivers/Peripheral/AVR8/Serial_AVR8.h **** 		#include "../../Misc/TerminalCodes.h"
  73:../../LUFA/Drivers/Peripheral/AVR8/Serial_AVR8.h **** 		
  74:../../LUFA/Drivers/Peripheral/AVR8/Serial_AVR8.h **** 		#include <stdio.h>
  75:../../LUFA/Drivers/Peripheral/AVR8/Serial_AVR8.h **** 
  76:../../LUFA/Drivers/Peripheral/AVR8/Serial_AVR8.h **** 	/* Enable C linkage for C++ Compilers: */
  77:../../LUFA/Drivers/Peripheral/AVR8/Serial_AVR8.h **** 		#if defined(__cplusplus)
  78:../../LUFA/Drivers/Peripheral/AVR8/Serial_AVR8.h **** 			extern "C" {
  79:../../LUFA/Drivers/Peripheral/AVR8/Serial_AVR8.h **** 		#endif
  80:../../LUFA/Drivers/Peripheral/AVR8/Serial_AVR8.h **** 
  81:../../LUFA/Drivers/Peripheral/AVR8/Serial_AVR8.h **** 	/* Preprocessor Checks: */
  82:../../LUFA/Drivers/Peripheral/AVR8/Serial_AVR8.h **** 		#if !defined(__INCLUDE_FROM_SERIAL_H) && !defined(__INCLUDE_FROM_SERIAL_C)
  83:../../LUFA/Drivers/Peripheral/AVR8/Serial_AVR8.h **** 			#error Do not include this file directly. Include LUFA/Drivers/Peripheral/Serial.h instead.
  84:../../LUFA/Drivers/Peripheral/AVR8/Serial_AVR8.h **** 		#endif
  85:../../LUFA/Drivers/Peripheral/AVR8/Serial_AVR8.h **** 
  86:../../LUFA/Drivers/Peripheral/AVR8/Serial_AVR8.h **** 	/* Private Interface - For use in library only: */
  87:../../LUFA/Drivers/Peripheral/AVR8/Serial_AVR8.h **** 	#if !defined(__DOXYGEN__)
  88:../../LUFA/Drivers/Peripheral/AVR8/Serial_AVR8.h **** 		/* External Variables: */
  89:../../LUFA/Drivers/Peripheral/AVR8/Serial_AVR8.h **** 			extern FILE USARTSerialStream;
  90:../../LUFA/Drivers/Peripheral/AVR8/Serial_AVR8.h **** 	
  91:../../LUFA/Drivers/Peripheral/AVR8/Serial_AVR8.h **** 		/* Function Prototypes: */
  92:../../LUFA/Drivers/Peripheral/AVR8/Serial_AVR8.h **** 			int Serial_putchar(char DataByte,
  93:../../LUFA/Drivers/Peripheral/AVR8/Serial_AVR8.h **** 			                   FILE *Stream);
  94:../../LUFA/Drivers/Peripheral/AVR8/Serial_AVR8.h **** 			int Serial_getchar(FILE *Stream);
  95:../../LUFA/Drivers/Peripheral/AVR8/Serial_AVR8.h **** 			int Serial_getchar_Blocking(FILE *Stream);
  96:../../LUFA/Drivers/Peripheral/AVR8/Serial_AVR8.h **** 	#endif
  97:../../LUFA/Drivers/Peripheral/AVR8/Serial_AVR8.h **** 
  98:../../LUFA/Drivers/Peripheral/AVR8/Serial_AVR8.h **** 	/* Public Interface - May be used in end-application: */
  99:../../LUFA/Drivers/Peripheral/AVR8/Serial_AVR8.h **** 		/* Macros: */
 100:../../LUFA/Drivers/Peripheral/AVR8/Serial_AVR8.h **** 			/** Macro for calculating the baud value from a given baud rate when the \c U2X (double speed) b
 101:../../LUFA/Drivers/Peripheral/AVR8/Serial_AVR8.h **** 			 *  not set.
 102:../../LUFA/Drivers/Peripheral/AVR8/Serial_AVR8.h **** 			 *
 103:../../LUFA/Drivers/Peripheral/AVR8/Serial_AVR8.h **** 			 *  \param[in] Baud  Target serial UART baud rate.
 104:../../LUFA/Drivers/Peripheral/AVR8/Serial_AVR8.h **** 			 *
 105:../../LUFA/Drivers/Peripheral/AVR8/Serial_AVR8.h **** 			 *  \return Closest UBRR register value for the given UART frequency.
 106:../../LUFA/Drivers/Peripheral/AVR8/Serial_AVR8.h **** 			 */
 107:../../LUFA/Drivers/Peripheral/AVR8/Serial_AVR8.h **** 			#define SERIAL_UBBRVAL(Baud)    ((((F_CPU / 16) + (Baud / 2)) / (Baud)) - 1)
 108:../../LUFA/Drivers/Peripheral/AVR8/Serial_AVR8.h **** 
 109:../../LUFA/Drivers/Peripheral/AVR8/Serial_AVR8.h **** 			/** Macro for calculating the baud value from a given baud rate when the \c U2X (double speed) b
 110:../../LUFA/Drivers/Peripheral/AVR8/Serial_AVR8.h **** 			 *  set.
 111:../../LUFA/Drivers/Peripheral/AVR8/Serial_AVR8.h **** 			 *
 112:../../LUFA/Drivers/Peripheral/AVR8/Serial_AVR8.h **** 			 *  \param[in] Baud  Target serial UART baud rate.
 113:../../LUFA/Drivers/Peripheral/AVR8/Serial_AVR8.h **** 			 *
 114:../../LUFA/Drivers/Peripheral/AVR8/Serial_AVR8.h **** 			 *  \return Closest UBRR register value for the given UART frequency.
 115:../../LUFA/Drivers/Peripheral/AVR8/Serial_AVR8.h **** 			 */
 116:../../LUFA/Drivers/Peripheral/AVR8/Serial_AVR8.h **** 			#define SERIAL_2X_UBBRVAL(Baud) ((((F_CPU / 8) + (Baud / 2)) / (Baud)) - 1)
 117:../../LUFA/Drivers/Peripheral/AVR8/Serial_AVR8.h **** 
 118:../../LUFA/Drivers/Peripheral/AVR8/Serial_AVR8.h **** 		/* Function Prototypes: */
 119:../../LUFA/Drivers/Peripheral/AVR8/Serial_AVR8.h **** 			/** Transmits a given string located in program space (FLASH) through the USART.
 120:../../LUFA/Drivers/Peripheral/AVR8/Serial_AVR8.h **** 			 *
 121:../../LUFA/Drivers/Peripheral/AVR8/Serial_AVR8.h **** 			 *  \param[in] FlashStringPtr  Pointer to a string located in program space.
 122:../../LUFA/Drivers/Peripheral/AVR8/Serial_AVR8.h **** 			 */
 123:../../LUFA/Drivers/Peripheral/AVR8/Serial_AVR8.h **** 			void Serial_SendString_P(const char* FlashStringPtr) ATTR_NON_NULL_PTR_ARG(1);
 124:../../LUFA/Drivers/Peripheral/AVR8/Serial_AVR8.h **** 
 125:../../LUFA/Drivers/Peripheral/AVR8/Serial_AVR8.h **** 			/** Transmits a given string located in SRAM memory through the USART.
 126:../../LUFA/Drivers/Peripheral/AVR8/Serial_AVR8.h **** 			 *
 127:../../LUFA/Drivers/Peripheral/AVR8/Serial_AVR8.h **** 			 *  \param[in] StringPtr  Pointer to a string located in SRAM space.
 128:../../LUFA/Drivers/Peripheral/AVR8/Serial_AVR8.h **** 			 */
 129:../../LUFA/Drivers/Peripheral/AVR8/Serial_AVR8.h **** 			void Serial_SendString(const char* StringPtr) ATTR_NON_NULL_PTR_ARG(1);
 130:../../LUFA/Drivers/Peripheral/AVR8/Serial_AVR8.h **** 			
 131:../../LUFA/Drivers/Peripheral/AVR8/Serial_AVR8.h **** 			/** Transmits a given buffer located in SRAM memory through the USART.
 132:../../LUFA/Drivers/Peripheral/AVR8/Serial_AVR8.h **** 			 *
 133:../../LUFA/Drivers/Peripheral/AVR8/Serial_AVR8.h **** 			 *  \param[in] Buffer  Pointer to a buffer containing the data to send.
 134:../../LUFA/Drivers/Peripheral/AVR8/Serial_AVR8.h **** 			 *  \param[in] Length  Length of the data to send, in bytes.
 135:../../LUFA/Drivers/Peripheral/AVR8/Serial_AVR8.h **** 			 */
 136:../../LUFA/Drivers/Peripheral/AVR8/Serial_AVR8.h **** 			void Serial_SendData(const uint8_t* Buffer, uint16_t Length) ATTR_NON_NULL_PTR_ARG(1);
 137:../../LUFA/Drivers/Peripheral/AVR8/Serial_AVR8.h **** 
 138:../../LUFA/Drivers/Peripheral/AVR8/Serial_AVR8.h **** 		/* Inline Functions: */
 139:../../LUFA/Drivers/Peripheral/AVR8/Serial_AVR8.h **** 			/** Initializes the USART, ready for serial data transmission and reception. This initializes th
 140:../../LUFA/Drivers/Peripheral/AVR8/Serial_AVR8.h **** 			 *  standard 8-bit, no parity, 1 stop bit settings suitable for most applications.
 141:../../LUFA/Drivers/Peripheral/AVR8/Serial_AVR8.h **** 			 *
 142:../../LUFA/Drivers/Peripheral/AVR8/Serial_AVR8.h **** 			 *  \param[in] BaudRate     Serial baud rate, in bits per second.
 143:../../LUFA/Drivers/Peripheral/AVR8/Serial_AVR8.h **** 			 *  \param[in] DoubleSpeed  Enables double speed mode when set, halving the sample time to doubl
 144:../../LUFA/Drivers/Peripheral/AVR8/Serial_AVR8.h **** 			 */
 145:../../LUFA/Drivers/Peripheral/AVR8/Serial_AVR8.h **** 			static inline void Serial_Init(const uint32_t BaudRate,
 146:../../LUFA/Drivers/Peripheral/AVR8/Serial_AVR8.h **** 			                               const bool DoubleSpeed)
 147:../../LUFA/Drivers/Peripheral/AVR8/Serial_AVR8.h **** 			{
 148:../../LUFA/Drivers/Peripheral/AVR8/Serial_AVR8.h **** 				UBRR1  = (DoubleSpeed ? SERIAL_2X_UBBRVAL(BaudRate) : SERIAL_UBBRVAL(BaudRate));
 845               		.loc 5 148 0
 846 002e 83E3      		ldi r24,lo8(51)
 847 0030 90E0      		ldi r25,0
 848 0032 9093 CD00 		sts 204+1,r25
 849 0036 8093 CC00 		sts 204,r24
 149:../../LUFA/Drivers/Peripheral/AVR8/Serial_AVR8.h **** 
 150:../../LUFA/Drivers/Peripheral/AVR8/Serial_AVR8.h **** 				UCSR1C = ((1 << UCSZ11) | (1 << UCSZ10));
 850               		.loc 5 150 0
 851 003a 86E0      		ldi r24,lo8(6)
 852 003c 8093 CA00 		sts 202,r24
 151:../../LUFA/Drivers/Peripheral/AVR8/Serial_AVR8.h **** 				UCSR1A = (DoubleSpeed ? (1 << U2X1) : 0);
 853               		.loc 5 151 0
 854 0040 1092 C800 		sts 200,__zero_reg__
 152:../../LUFA/Drivers/Peripheral/AVR8/Serial_AVR8.h **** 				UCSR1B = ((1 << TXEN1)  | (1 << RXEN1));
 855               		.loc 5 152 0
 856 0044 88E1      		ldi r24,lo8(24)
 857 0046 8093 C900 		sts 201,r24
 153:../../LUFA/Drivers/Peripheral/AVR8/Serial_AVR8.h **** 
 154:../../LUFA/Drivers/Peripheral/AVR8/Serial_AVR8.h **** 				DDRD  |= (1 << 3);
 858               		.loc 5 154 0
 859 004a 539A      		sbi 0xa,3
 155:../../LUFA/Drivers/Peripheral/AVR8/Serial_AVR8.h **** 				PORTD |= (1 << 2);
 860               		.loc 5 155 0
 861 004c 5A9A      		sbi 0xb,2
 862               	.LVL17:
 863               	.LBE30:
 864               	.LBE29:
 865               	.LBB31:
 866               	.LBB32:
  88:../../LUFA/Drivers/Board/AVR8/USBKEY/LEDs.h **** 				PORTD &= ~LEDS_ALL_LEDS;
 867               		.loc 1 88 0
 868 004e 8AB1      		in r24,0xa
 869 0050 806F      		ori r24,lo8(-16)
 870 0052 8AB9      		out 0xa,r24
  89:../../LUFA/Drivers/Board/AVR8/USBKEY/LEDs.h **** 			}
 871               		.loc 1 89 0
 872 0054 8BB1      		in r24,0xb
 873 0056 8F70      		andi r24,lo8(15)
 874 0058 8BB9      		out 0xb,r24
 875               	.LBE32:
 876               	.LBE31:
 204:HIDReportViewer.c **** 	wdt_disable();
 205:HIDReportViewer.c **** 
 206:HIDReportViewer.c **** 	/* Disable clock division */
 207:HIDReportViewer.c **** 	clock_prescale_set(clock_div_1);
 208:HIDReportViewer.c **** 
 209:HIDReportViewer.c **** 	/* Hardware Initialization */
 210:HIDReportViewer.c **** 	Serial_Init(9600, false);
 211:HIDReportViewer.c **** 	LEDs_Init();
 212:HIDReportViewer.c **** 	USB_Init();
 877               		.loc 2 212 0
 878 005a 0E94 0000 		call USB_Init
 879               	.LVL18:
 880               	.LBB33:
 881               	.LBB34:
 156:../../LUFA/Drivers/Peripheral/AVR8/Serial_AVR8.h **** 			}
 157:../../LUFA/Drivers/Peripheral/AVR8/Serial_AVR8.h **** 
 158:../../LUFA/Drivers/Peripheral/AVR8/Serial_AVR8.h **** 			/** Turns off the USART driver, disabling and returning used hardware to their default configura
 159:../../LUFA/Drivers/Peripheral/AVR8/Serial_AVR8.h **** 			static inline void Serial_Disable(void)
 160:../../LUFA/Drivers/Peripheral/AVR8/Serial_AVR8.h **** 			{
 161:../../LUFA/Drivers/Peripheral/AVR8/Serial_AVR8.h **** 				UCSR1B = 0;
 162:../../LUFA/Drivers/Peripheral/AVR8/Serial_AVR8.h **** 				UCSR1A = 0;
 163:../../LUFA/Drivers/Peripheral/AVR8/Serial_AVR8.h **** 				UCSR1C = 0;
 164:../../LUFA/Drivers/Peripheral/AVR8/Serial_AVR8.h **** 
 165:../../LUFA/Drivers/Peripheral/AVR8/Serial_AVR8.h **** 				UBRR1  = 0;
 166:../../LUFA/Drivers/Peripheral/AVR8/Serial_AVR8.h **** 
 167:../../LUFA/Drivers/Peripheral/AVR8/Serial_AVR8.h **** 				DDRD  &= ~(1 << 3);
 168:../../LUFA/Drivers/Peripheral/AVR8/Serial_AVR8.h **** 				PORTD &= ~(1 << 2);
 169:../../LUFA/Drivers/Peripheral/AVR8/Serial_AVR8.h **** 			}
 170:../../LUFA/Drivers/Peripheral/AVR8/Serial_AVR8.h **** 
 171:../../LUFA/Drivers/Peripheral/AVR8/Serial_AVR8.h **** 			/** Creates a standard character stream from the USART so that it can be used with all the regul
 172:../../LUFA/Drivers/Peripheral/AVR8/Serial_AVR8.h **** 			 *  in the avr-libc \c <stdio.h> library that accept a \c FILE stream as a destination (e.g. \c 
 173:../../LUFA/Drivers/Peripheral/AVR8/Serial_AVR8.h **** 			 *  stream is bidirectional and can be used for both input and output functions.
 174:../../LUFA/Drivers/Peripheral/AVR8/Serial_AVR8.h **** 			 *
 175:../../LUFA/Drivers/Peripheral/AVR8/Serial_AVR8.h **** 			 *  Reading data from this stream is non-blocking, i.e. in most instances, complete strings cann
 176:../../LUFA/Drivers/Peripheral/AVR8/Serial_AVR8.h **** 			 *  fetch, as the endpoint will not be ready at some point in the transmission, aborting the tra
 177:../../LUFA/Drivers/Peripheral/AVR8/Serial_AVR8.h **** 			 *  be used when the read data is processed byte-per-bye (via \c getc()) or when the user applic
 178:../../LUFA/Drivers/Peripheral/AVR8/Serial_AVR8.h **** 			 *  line buffering.
 179:../../LUFA/Drivers/Peripheral/AVR8/Serial_AVR8.h **** 			 *
 180:../../LUFA/Drivers/Peripheral/AVR8/Serial_AVR8.h **** 			 *  \param[in,out] Stream  Pointer to a FILE structure where the created stream should be placed
 181:../../LUFA/Drivers/Peripheral/AVR8/Serial_AVR8.h **** 			 *                         and \c stdin will be configured to use the USART.
 182:../../LUFA/Drivers/Peripheral/AVR8/Serial_AVR8.h **** 			 *
 183:../../LUFA/Drivers/Peripheral/AVR8/Serial_AVR8.h **** 			 *  \pre The USART must first be configured via a call to \ref Serial_Init() before the stream i
 184:../../LUFA/Drivers/Peripheral/AVR8/Serial_AVR8.h **** 			 */
 185:../../LUFA/Drivers/Peripheral/AVR8/Serial_AVR8.h **** 			static inline void Serial_CreateStream(FILE* Stream)
 186:../../LUFA/Drivers/Peripheral/AVR8/Serial_AVR8.h **** 			{
 187:../../LUFA/Drivers/Peripheral/AVR8/Serial_AVR8.h **** 				if (!(Stream))
 188:../../LUFA/Drivers/Peripheral/AVR8/Serial_AVR8.h **** 				{
 189:../../LUFA/Drivers/Peripheral/AVR8/Serial_AVR8.h **** 					Stream = &USARTSerialStream;
 190:../../LUFA/Drivers/Peripheral/AVR8/Serial_AVR8.h **** 					stdin  = Stream;
 882               		.loc 5 190 0
 883 005e A0E0      		ldi r26,lo8(__iob)
 884 0060 B0E0      		ldi r27,hi8(__iob)
 885 0062 E0E0      		ldi r30,lo8(USARTSerialStream)
 886 0064 F0E0      		ldi r31,hi8(USARTSerialStream)
 887 0066 1196      		adiw r26,1
 888 0068 FC93      		st X,r31
 889 006a EE93      		st -X,r30
 191:../../LUFA/Drivers/Peripheral/AVR8/Serial_AVR8.h **** 					stdout = Stream;
 890               		.loc 5 191 0
 891 006c 1396      		adiw r26,2+1
 892 006e FC93      		st X,r31
 893 0070 EE93      		st -X,r30
 894 0072 1297      		sbiw r26,2
 192:../../LUFA/Drivers/Peripheral/AVR8/Serial_AVR8.h **** 				}
 193:../../LUFA/Drivers/Peripheral/AVR8/Serial_AVR8.h **** 			
 194:../../LUFA/Drivers/Peripheral/AVR8/Serial_AVR8.h **** 				*Stream = (FILE)FDEV_SETUP_STREAM(Serial_putchar, Serial_getchar, _FDEV_SETUP_RW);
 895               		.loc 5 194 0
 896 0074 8EE0      		ldi r24,lo8(14)
 897 0076 DF01      		movw r26,r30
 898               		0:
 899 0078 1D92      		st X+,__zero_reg__
 900 007a 8A95      		dec r24
 901 007c 01F4      		brne 0b
 902 007e 83E0      		ldi r24,lo8(3)
 903 0080 8383      		std Z+3,r24
 904 0082 80E0      		ldi r24,lo8(gs(Serial_putchar))
 905 0084 90E0      		ldi r25,hi8(gs(Serial_putchar))
 906 0086 9187      		std Z+9,r25
 907 0088 8087      		std Z+8,r24
 908 008a 80E0      		ldi r24,lo8(gs(Serial_getchar))
 909 008c 90E0      		ldi r25,hi8(gs(Serial_getchar))
 910 008e 9387      		std Z+11,r25
 911 0090 8287      		std Z+10,r24
 912               	.LVL19:
 913 0092 0895      		ret
 914               	.LBE34:
 915               	.LBE33:
 916               		.cfi_endproc
 917               	.LFE152:
 919               		.section	.text.startup.main,"ax",@progbits
 920               	.global	main
 922               	main:
 923               	.LFB147:
  67:HIDReportViewer.c **** 	SetupHardware();
 924               		.loc 2 67 0
 925               		.cfi_startproc
 926               	/* prologue: function */
 927               	/* frame size = 0 */
 928               	/* stack size = 0 */
 929               	.L__stack_usage = 0
  68:HIDReportViewer.c **** 
 930               		.loc 2 68 0
 931 0000 0E94 0000 		call SetupHardware
 932               	.LVL20:
  70:HIDReportViewer.c **** 
 933               		.loc 2 70 0
 934 0004 80E0      		ldi r24,lo8(__c.4477)
 935 0006 90E0      		ldi r25,hi8(__c.4477)
 936 0008 0E94 0000 		call puts_P
 937               	.LVL21:
  72:HIDReportViewer.c **** 	sei();
 938               		.loc 2 72 0
 939 000c 80E1      		ldi r24,lo8(16)
 940 000e 0E94 0000 		call LEDs_SetAllLEDs
 941               	.LVL22:
  73:HIDReportViewer.c **** 
 942               		.loc 2 73 0
 943               	/* #APP */
 944               	 ;  73 "HIDReportViewer.c" 1
 945 0012 7894      		sei
 946               	 ;  0 "" 2
 947               	/* #NOAPP */
 948               	.L24:
  77:HIDReportViewer.c **** 		
 949               		.loc 2 77 0 discriminator 1
 950 0014 0E94 0000 		call RetrieveDeviceData
 951               	.LVL23:
  80:HIDReportViewer.c **** 	}
 952               		.loc 2 80 0 discriminator 1
 953 0018 0E94 0000 		call USB_USBTask
 954               	.LVL24:
 955 001c 00C0      		rjmp .L24
 956               		.cfi_endproc
 957               	.LFE147:
 959               		.section	.text.EVENT_USB_Host_DeviceAttached,"ax",@progbits
 960               	.global	EVENT_USB_Host_DeviceAttached
 962               	EVENT_USB_Host_DeviceAttached:
 963               	.LFB153:
 213:HIDReportViewer.c **** 
 214:HIDReportViewer.c **** 	/* Create a stdio stream for the serial port for stdin and stdout */
 215:HIDReportViewer.c **** 	Serial_CreateStream(NULL);
 216:HIDReportViewer.c **** }
 217:HIDReportViewer.c **** 
 218:HIDReportViewer.c **** /** Event handler for the USB_DeviceAttached event. This indicates that a device has been attached 
 219:HIDReportViewer.c ****  *  starts the library USB task to begin the enumeration and USB management process.
 220:HIDReportViewer.c ****  */
 221:HIDReportViewer.c **** void EVENT_USB_Host_DeviceAttached(void)
 222:HIDReportViewer.c **** {
 964               		.loc 2 222 0
 965               		.cfi_startproc
 966               	/* prologue: function */
 967               	/* frame size = 0 */
 968               	/* stack size = 0 */
 969               	.L__stack_usage = 0
 223:HIDReportViewer.c **** 	puts_P(PSTR("Device Attached.\r\n"));
 970               		.loc 2 223 0
 971 0000 80E0      		ldi r24,lo8(__c.4527)
 972 0002 90E0      		ldi r25,hi8(__c.4527)
 973 0004 0E94 0000 		call puts_P
 974               	.LVL25:
 224:HIDReportViewer.c **** 	LEDs_SetAllLEDs(LEDMASK_USB_ENUMERATING);
 975               		.loc 2 224 0
 976 0008 80EA      		ldi r24,lo8(-96)
 977 000a 0C94 0000 		jmp LEDs_SetAllLEDs
 978               	.LVL26:
 979               		.cfi_endproc
 980               	.LFE153:
 982               		.section	.text.EVENT_USB_Host_DeviceUnattached,"ax",@progbits
 983               	.global	EVENT_USB_Host_DeviceUnattached
 985               	EVENT_USB_Host_DeviceUnattached:
 986               	.LFB154:
 225:HIDReportViewer.c **** }
 226:HIDReportViewer.c **** 
 227:HIDReportViewer.c **** /** Event handler for the USB_DeviceUnattached event. This indicates that a device has been removed
 228:HIDReportViewer.c ****  *  stops the library USB task management process.
 229:HIDReportViewer.c ****  */
 230:HIDReportViewer.c **** void EVENT_USB_Host_DeviceUnattached(void)
 231:HIDReportViewer.c **** {
 987               		.loc 2 231 0
 988               		.cfi_startproc
 989               	/* prologue: function */
 990               	/* frame size = 0 */
 991               	/* stack size = 0 */
 992               	.L__stack_usage = 0
 232:HIDReportViewer.c **** 	puts_P(PSTR("\r\nDevice Unattached.\r\n"));
 993               		.loc 2 232 0
 994 0000 80E0      		ldi r24,lo8(__c.4532)
 995 0002 90E0      		ldi r25,hi8(__c.4532)
 996 0004 0E94 0000 		call puts_P
 997               	.LVL27:
 233:HIDReportViewer.c **** 	LEDs_SetAllLEDs(LEDMASK_USB_NOTREADY);
 998               		.loc 2 233 0
 999 0008 80E1      		ldi r24,lo8(16)
 1000 000a 0C94 0000 		jmp LEDs_SetAllLEDs
 1001               	.LVL28:
 1002               		.cfi_endproc
 1003               	.LFE154:
 1005               		.section	.text.EVENT_USB_Host_DeviceEnumerationComplete,"ax",@progbits
 1006               	.global	EVENT_USB_Host_DeviceEnumerationComplete
 1008               	EVENT_USB_Host_DeviceEnumerationComplete:
 1009               	.LFB155:
 234:HIDReportViewer.c **** }
 235:HIDReportViewer.c **** 
 236:HIDReportViewer.c **** /** Event handler for the USB_DeviceEnumerationComplete event. This indicates that a device has bee
 237:HIDReportViewer.c ****  *  enumerated by the host and is now ready to be used by the application.
 238:HIDReportViewer.c ****  */
 239:HIDReportViewer.c **** void EVENT_USB_Host_DeviceEnumerationComplete(void)
 240:HIDReportViewer.c **** {
 1010               		.loc 2 240 0
 1011               		.cfi_startproc
 1012 0000 CF93      		push r28
 1013               	.LCFI68:
 1014               		.cfi_def_cfa_offset 3
 1015               		.cfi_offset 28, -2
 1016 0002 DF93      		push r29
 1017               	.LCFI69:
 1018               		.cfi_def_cfa_offset 4
 1019               		.cfi_offset 29, -3
 1020 0004 CDB7      		in r28,__SP_L__
 1021 0006 DEB7      		in r29,__SP_H__
 1022               	.LCFI70:
 1023               		.cfi_def_cfa_register 28
 1024 0008 C250      		subi r28,2
 1025 000a D240      		sbci r29,2
 1026               	.LCFI71:
 1027               		.cfi_def_cfa_offset 518
 1028 000c 0FB6      		in __tmp_reg__,__SREG__
 1029 000e F894      		cli
 1030 0010 DEBF      		out __SP_H__,r29
 1031 0012 0FBE      		out __SREG__,__tmp_reg__
 1032 0014 CDBF      		out __SP_L__,r28
 1033               	/* prologue: function */
 1034               	/* frame size = 514 */
 1035               	/* stack size = 516 */
 1036               	.L__stack_usage = 516
 241:HIDReportViewer.c **** 	LEDs_SetAllLEDs(LEDMASK_USB_ENUMERATING);
 1037               		.loc 2 241 0
 1038 0016 80EA      		ldi r24,lo8(-96)
 1039 0018 0E94 0000 		call LEDs_SetAllLEDs
 1040               	.LVL29:
 242:HIDReportViewer.c **** 
 243:HIDReportViewer.c **** 	uint16_t ConfigDescriptorSize;
 244:HIDReportViewer.c **** 	uint8_t  ConfigDescriptorData[512];
 245:HIDReportViewer.c **** 
 246:HIDReportViewer.c **** 	if (USB_Host_GetDeviceConfigDescriptor(1, &ConfigDescriptorSize, ConfigDescriptorData,
 1041               		.loc 2 246 0
 1042 001c 20E0      		ldi r18,0
 1043 001e 32E0      		ldi r19,lo8(2)
 1044 0020 AE01      		movw r20,r28
 1045 0022 4F5F      		subi r20,-1
 1046 0024 5F4F      		sbci r21,-1
 1047 0026 BE01      		movw r22,r28
 1048 0028 6F5F      		subi r22,-1
 1049 002a 7D4F      		sbci r23,-3
 1050 002c 81E0      		ldi r24,lo8(1)
 1051 002e 0E94 0000 		call USB_Host_GetDeviceConfigDescriptor
 1052               	.LVL30:
 1053 0032 8823      		tst r24
 1054 0034 01F0      		breq .L28
 247:HIDReportViewer.c **** 	                                       sizeof(ConfigDescriptorData)) != HOST_GETCONFIG_Successful)
 248:HIDReportViewer.c **** 	{
 249:HIDReportViewer.c **** 		puts_P(PSTR("Error Retrieving Configuration Descriptor.\r\n"));
 1055               		.loc 2 249 0
 1056 0036 80E0      		ldi r24,lo8(__c.4539)
 1057 0038 90E0      		ldi r25,hi8(__c.4539)
 1058 003a 00C0      		rjmp .L35
 1059               	.L28:
 250:HIDReportViewer.c **** 		LEDs_SetAllLEDs(LEDMASK_USB_ERROR);
 251:HIDReportViewer.c **** 		return;
 252:HIDReportViewer.c **** 	}
 253:HIDReportViewer.c **** 
 254:HIDReportViewer.c **** 	if (HID_Host_ConfigurePipes(&Device_HID_Interface,
 1060               		.loc 2 254 0
 1061 003c CF5F      		subi r28,lo8(-513)
 1062 003e DD4F      		sbci r29,hi8(-513)
 1063 0040 6881      		ld r22,Y
 1064 0042 7981      		ldd r23,Y+1
 1065 0044 C150      		subi r28,lo8(513)
 1066 0046 D240      		sbci r29,hi8(513)
 1067 0048 AE01      		movw r20,r28
 1068 004a 4F5F      		subi r20,-1
 1069 004c 5F4F      		sbci r21,-1
 1070 004e 80E0      		ldi r24,lo8(Device_HID_Interface)
 1071 0050 90E0      		ldi r25,hi8(Device_HID_Interface)
 1072 0052 0E94 0000 		call HID_Host_ConfigurePipes
 1073               	.LVL31:
 1074 0056 8823      		tst r24
 1075 0058 01F0      		breq .L30
 255:HIDReportViewer.c **** 	                            ConfigDescriptorSize, ConfigDescriptorData) != HID_ENUMERROR_NoError)
 256:HIDReportViewer.c **** 	{
 257:HIDReportViewer.c **** 		puts_P(PSTR("Attached Device Not a Valid HID Device.\r\n"));
 1076               		.loc 2 257 0
 1077 005a 80E0      		ldi r24,lo8(__c.4541)
 1078 005c 90E0      		ldi r25,hi8(__c.4541)
 1079 005e 00C0      		rjmp .L35
 1080               	.L30:
 258:HIDReportViewer.c **** 		LEDs_SetAllLEDs(LEDMASK_USB_ERROR);
 259:HIDReportViewer.c **** 		return;
 260:HIDReportViewer.c **** 	}
 261:HIDReportViewer.c **** 
 262:HIDReportViewer.c **** 	if (USB_Host_SetDeviceConfiguration(1) != HOST_SENDCONTROL_Successful)
 1081               		.loc 2 262 0
 1082 0060 81E0      		ldi r24,lo8(1)
 1083 0062 0E94 0000 		call USB_Host_SetDeviceConfiguration
 1084               	.LVL32:
 1085 0066 8823      		tst r24
 1086 0068 01F0      		breq .L31
 263:HIDReportViewer.c **** 	{
 264:HIDReportViewer.c **** 		puts_P(PSTR("Error Setting Device Configuration.\r\n"));
 1087               		.loc 2 264 0
 1088 006a 80E0      		ldi r24,lo8(__c.4543)
 1089 006c 90E0      		ldi r25,hi8(__c.4543)
 1090               	.L35:
 1091 006e 0E94 0000 		call puts_P
 1092               	.LVL33:
 265:HIDReportViewer.c **** 		LEDs_SetAllLEDs(LEDMASK_USB_ERROR);
 1093               		.loc 2 265 0
 1094 0072 80E9      		ldi r24,lo8(-112)
 1095 0074 00C0      		rjmp .L34
 1096               	.L31:
 266:HIDReportViewer.c **** 		return;
 267:HIDReportViewer.c **** 	}
 268:HIDReportViewer.c **** 
 269:HIDReportViewer.c **** 	if (HID_Host_SetReportProtocol(&Device_HID_Interface) != 0)
 1097               		.loc 2 269 0
 1098 0076 80E0      		ldi r24,lo8(Device_HID_Interface)
 1099 0078 90E0      		ldi r25,hi8(Device_HID_Interface)
 1100 007a 0E94 0000 		call HID_Host_SetReportProtocol
 1101               	.LVL34:
 1102 007e 8823      		tst r24
 1103 0080 01F0      		breq .L32
 270:HIDReportViewer.c **** 	{
 271:HIDReportViewer.c **** 		puts_P(PSTR("Error Setting Report Protocol Mode.\r\n"));
 1104               		.loc 2 271 0
 1105 0082 80E0      		ldi r24,lo8(__c.4545)
 1106 0084 90E0      		ldi r25,hi8(__c.4545)
 1107 0086 0E94 0000 		call puts_P
 1108               	.LVL35:
 272:HIDReportViewer.c **** 		LEDs_SetAllLEDs(LEDMASK_USB_ERROR);
 1109               		.loc 2 272 0
 1110 008a 80E9      		ldi r24,lo8(-112)
 1111 008c 0E94 0000 		call LEDs_SetAllLEDs
 1112               	.LVL36:
 273:HIDReportViewer.c **** 		USB_Host_SetDeviceConfiguration(0);
 1113               		.loc 2 273 0
 1114 0090 80E0      		ldi r24,0
 1115 0092 0E94 0000 		call USB_Host_SetDeviceConfiguration
 1116               	.LVL37:
 274:HIDReportViewer.c **** 		return;
 1117               		.loc 2 274 0
 1118 0096 00C0      		rjmp .L27
 1119               	.L32:
 275:HIDReportViewer.c **** 	}
 276:HIDReportViewer.c **** 
 277:HIDReportViewer.c **** 	puts_P(PSTR("HID Device Enumerated.\r\n"));
 1120               		.loc 2 277 0
 1121 0098 80E0      		ldi r24,lo8(__c.4547)
 1122 009a 90E0      		ldi r25,hi8(__c.4547)
 1123 009c 0E94 0000 		call puts_P
 1124               	.LVL38:
 278:HIDReportViewer.c **** 	LEDs_SetAllLEDs(LEDMASK_USB_READY);
 1125               		.loc 2 278 0
 1126 00a0 80E6      		ldi r24,lo8(96)
 1127               	.L34:
 1128 00a2 0E94 0000 		call LEDs_SetAllLEDs
 1129               	.LVL39:
 1130               	.L27:
 1131               	/* epilogue start */
 279:HIDReportViewer.c **** }
 1132               		.loc 2 279 0
 1133 00a6 CE5F      		subi r28,-2
 1134 00a8 DD4F      		sbci r29,-3
 1135 00aa 0FB6      		in __tmp_reg__,__SREG__
 1136 00ac F894      		cli
 1137 00ae DEBF      		out __SP_H__,r29
 1138 00b0 0FBE      		out __SREG__,__tmp_reg__
 1139 00b2 CDBF      		out __SP_L__,r28
 1140 00b4 DF91      		pop r29
 1141 00b6 CF91      		pop r28
 1142 00b8 0895      		ret
 1143               		.cfi_endproc
 1144               	.LFE155:
 1146               		.section	.text.EVENT_USB_Host_HostError,"ax",@progbits
 1147               	.global	EVENT_USB_Host_HostError
 1149               	EVENT_USB_Host_HostError:
 1150               	.LFB156:
 280:HIDReportViewer.c **** 
 281:HIDReportViewer.c **** /** Event handler for the USB_HostError event. This indicates that a hardware error occurred while 
 282:HIDReportViewer.c **** void EVENT_USB_Host_HostError(const uint8_t ErrorCode)
 283:HIDReportViewer.c **** {
 1151               		.loc 2 283 0
 1152               		.cfi_startproc
 1153               	.LVL40:
 1154               	/* prologue: function */
 1155               	/* frame size = 0 */
 1156               	/* stack size = 0 */
 1157               	.L__stack_usage = 0
 1158 0000 C82F      		mov r28,r24
 284:HIDReportViewer.c **** 	USB_Disable();
 1159               		.loc 2 284 0
 1160 0002 0E94 0000 		call USB_Disable
 1161               	.LVL41:
 285:HIDReportViewer.c **** 
 286:HIDReportViewer.c **** 	printf_P(PSTR(ESC_FG_RED "Host Mode Error\r\n"
 1162               		.loc 2 286 0
 1163 0006 1F92      		push __zero_reg__
 1164               	.LCFI72:
 1165               		.cfi_def_cfa_offset 3
 1166 0008 CF93      		push r28
 1167               	.LCFI73:
 1168               		.cfi_def_cfa_offset 4
 1169 000a 80E0      		ldi r24,lo8(__c.4552)
 1170 000c 90E0      		ldi r25,hi8(__c.4552)
 1171 000e 9F93      		push r25
 1172               	.LCFI74:
 1173               		.cfi_def_cfa_offset 5
 1174 0010 8F93      		push r24
 1175               	.LCFI75:
 1176               		.cfi_def_cfa_offset 6
 1177 0012 0E94 0000 		call printf_P
 1178               	.LVL42:
 287:HIDReportViewer.c **** 	                         " -- Error Code %d\r\n" ESC_FG_WHITE), ErrorCode);
 288:HIDReportViewer.c **** 
 289:HIDReportViewer.c **** 	LEDs_SetAllLEDs(LEDMASK_USB_ERROR);
 1179               		.loc 2 289 0
 1180 0016 80E9      		ldi r24,lo8(-112)
 1181 0018 0E94 0000 		call LEDs_SetAllLEDs
 1182               	.LVL43:
 1183 001c 0F90      		pop __tmp_reg__
 1184 001e 0F90      		pop __tmp_reg__
 1185 0020 0F90      		pop __tmp_reg__
 1186 0022 0F90      		pop __tmp_reg__
 1187               	.LCFI76:
 1188               		.cfi_def_cfa_offset 2
 1189               	.L37:
 1190 0024 00C0      		rjmp .L37
 1191               		.cfi_endproc
 1192               	.LFE156:
 1194               		.section	.text.EVENT_USB_Host_DeviceEnumerationFailed,"ax",@progbits
 1195               	.global	EVENT_USB_Host_DeviceEnumerationFailed
 1197               	EVENT_USB_Host_DeviceEnumerationFailed:
 1198               	.LFB157:
 290:HIDReportViewer.c **** 	for(;;);
 291:HIDReportViewer.c **** }
 292:HIDReportViewer.c **** 
 293:HIDReportViewer.c **** /** Event handler for the USB_DeviceEnumerationFailed event. This indicates that a problem occurred
 294:HIDReportViewer.c ****  *  enumerating an attached USB device.
 295:HIDReportViewer.c ****  */
 296:HIDReportViewer.c **** void EVENT_USB_Host_DeviceEnumerationFailed(const uint8_t ErrorCode,
 297:HIDReportViewer.c ****                                             const uint8_t SubErrorCode)
 298:HIDReportViewer.c **** {
 1199               		.loc 2 298 0
 1200               		.cfi_startproc
 1201               	.LVL44:
 1202               	/* prologue: function */
 1203               	/* frame size = 0 */
 1204               	/* stack size = 0 */
 1205               	.L__stack_usage = 0
 299:HIDReportViewer.c **** 	printf_P(PSTR(ESC_FG_RED "Dev Enum Error\r\n"
 1206               		.loc 2 299 0
 1207 0000 9091 0000 		lds r25,USB_HostState
 1208 0004 1F92      		push __zero_reg__
 1209               	.LCFI77:
 1210               		.cfi_def_cfa_offset 3
 1211 0006 9F93      		push r25
 1212               	.LCFI78:
 1213               		.cfi_def_cfa_offset 4
 1214 0008 1F92      		push __zero_reg__
 1215               	.LCFI79:
 1216               		.cfi_def_cfa_offset 5
 1217 000a 6F93      		push r22
 1218               	.LCFI80:
 1219               		.cfi_def_cfa_offset 6
 1220 000c 1F92      		push __zero_reg__
 1221               	.LCFI81:
 1222               		.cfi_def_cfa_offset 7
 1223 000e 8F93      		push r24
 1224               	.LCFI82:
 1225               		.cfi_def_cfa_offset 8
 1226 0010 80E0      		ldi r24,lo8(__c.4559)
 1227 0012 90E0      		ldi r25,hi8(__c.4559)
 1228               	.LVL45:
 1229 0014 9F93      		push r25
 1230               	.LCFI83:
 1231               		.cfi_def_cfa_offset 9
 1232 0016 8F93      		push r24
 1233               	.LCFI84:
 1234               		.cfi_def_cfa_offset 10
 1235 0018 0E94 0000 		call printf_P
 1236               	.LVL46:
 300:HIDReportViewer.c **** 	                         " -- Error Code %d\r\n"
 301:HIDReportViewer.c **** 	                         " -- Sub Error Code %d\r\n"
 302:HIDReportViewer.c **** 	                         " -- In State %d\r\n" ESC_FG_WHITE), ErrorCode, SubErrorCode, USB_HostSta
 303:HIDReportViewer.c **** 
 304:HIDReportViewer.c **** 	LEDs_SetAllLEDs(LEDMASK_USB_ERROR);
 1237               		.loc 2 304 0
 1238 001c 8DB7      		in r24,__SP_L__
 1239 001e 9EB7      		in r25,__SP_H__
 1240 0020 0896      		adiw r24,8
 1241 0022 0FB6      		in __tmp_reg__,__SREG__
 1242 0024 F894      		cli
 1243 0026 9EBF      		out __SP_H__,r25
 1244 0028 0FBE      		out __SREG__,__tmp_reg__
 1245 002a 8DBF      		out __SP_L__,r24
 1246               	.LCFI85:
 1247               		.cfi_def_cfa_offset 2
 1248 002c 80E9      		ldi r24,lo8(-112)
 1249 002e 0C94 0000 		jmp LEDs_SetAllLEDs
 1250               	.LVL47:
 1251               		.cfi_endproc
 1252               	.LFE157:
 1254               		.section	.text.CALLBACK_HIDParser_FilterHIDReportItem,"ax",@progbits
 1255               	.global	CALLBACK_HIDParser_FilterHIDReportItem
 1257               	CALLBACK_HIDParser_FilterHIDReportItem:
 1258               	.LFB158:
 305:HIDReportViewer.c **** }
 306:HIDReportViewer.c **** 
 307:HIDReportViewer.c **** /** Callback for the HID Report Parser. This function is called each time the HID report parser is 
 308:HIDReportViewer.c ****  *  an IN, OUT or FEATURE item into the HIDReportInfo structure. To save on RAM, we are able to fil
 309:HIDReportViewer.c ****  *  we aren't interested in (preventing us from being able to extract them later on, but saving on 
 310:HIDReportViewer.c ****  *  have occupied).
 311:HIDReportViewer.c ****  *
 312:HIDReportViewer.c ****  *  \param[in] CurrentItem  Pointer to the item the HID report parser is currently working with
 313:HIDReportViewer.c ****  *
 314:HIDReportViewer.c ****  *  \return Boolean true if the item should be stored into the HID report structure, false if it sh
 315:HIDReportViewer.c ****  */
 316:HIDReportViewer.c **** bool CALLBACK_HIDParser_FilterHIDReportItem(HID_ReportItem_t* const CurrentItem)
 317:HIDReportViewer.c **** {
 1259               		.loc 2 317 0
 1260               		.cfi_startproc
 1261               	.LVL48:
 1262               	/* prologue: function */
 1263               	/* frame size = 0 */
 1264               	/* stack size = 0 */
 1265               	.L__stack_usage = 0
 318:HIDReportViewer.c **** 	return true;
 319:HIDReportViewer.c **** }
 1266               		.loc 2 319 0
 1267 0000 81E0      		ldi r24,lo8(1)
 1268               	.LVL49:
 1269 0002 0895      		ret
 1270               		.cfi_endproc
 1271               	.LFE158:
 1273               		.section	.progmem.data,"a",@progbits
 1276               	__c.4559:
 1277 0000 1B5B 3331 		.string	"\033[31mDev Enum Error\r\n -- Error Code %d\r\n -- Sub Error Code %d\r\n -- In State %d\r
 1277      6D44 6576 
 1277      2045 6E75 
 1277      6D20 4572 
 1277      726F 720D 
 1280               	__c.4552:
 1281 0056 1B5B 3331 		.string	"\033[31mHost Mode Error\r\n -- Error Code %d\r\n\033[37m"
 1281      6D48 6F73 
 1281      7420 4D6F 
 1281      6465 2045 
 1281      7272 6F72 
 1284               	__c.4547:
 1285 0085 4849 4420 		.string	"HID Device Enumerated.\r\n"
 1285      4465 7669 
 1285      6365 2045 
 1285      6E75 6D65 
 1285      7261 7465 
 1288               	__c.4545:
 1289 009e 4572 726F 		.string	"Error Setting Report Protocol Mode.\r\n"
 1289      7220 5365 
 1289      7474 696E 
 1289      6720 5265 
 1289      706F 7274 
 1292               	__c.4543:
 1293 00c4 4572 726F 		.string	"Error Setting Device Configuration.\r\n"
 1293      7220 5365 
 1293      7474 696E 
 1293      6720 4465 
 1293      7669 6365 
 1296               	__c.4541:
 1297 00ea 4174 7461 		.string	"Attached Device Not a Valid HID Device.\r\n"
 1297      6368 6564 
 1297      2044 6576 
 1297      6963 6520 
 1297      4E6F 7420 
 1300               	__c.4539:
 1301 0114 4572 726F 		.string	"Error Retrieving Configuration Descriptor.\r\n"
 1301      7220 5265 
 1301      7472 6965 
 1301      7669 6E67 
 1301      2043 6F6E 
 1304               	__c.4532:
 1305 0141 0D0A 4465 		.string	"\r\nDevice Unattached.\r\n"
 1305      7669 6365 
 1305      2055 6E61 
 1305      7474 6163 
 1305      6865 642E 
 1308               	__c.4527:
 1309 0158 4465 7669 		.string	"Device Attached.\r\n"
 1309      6365 2041 
 1309      7474 6163 
 1309      6865 642E 
 1309      0D0A 00
 1312               	__c.4519:
 1313 016b 2020 2020 		.string	"      |\r\n      END\r\n"
 1313      2020 7C0D 
 1313      0A20 2020 
 1313      2020 2045 
 1313      4E44 0D0A 
 1316               	__c.4514:
 1317 0180 2020 2020 		.string	"      |\r\n      - Type:  0x%02X\r\n      - Usage: 0x%02X\r\n"
 1317      2020 7C0D 
 1317      0A20 2020 
 1317      2020 202D 
 1317      2054 7970 
 1320               	__c.4505:
 1321 01b8 2020 2B20 		.ascii	"  + Item %d:\r\n    - Report ID:          0x%02X\r\n    - Da"
 1321      4974 656D 
 1321      2025 643A 
 1321      0D0A 2020 
 1321      2020 2D20 
 1322 01f0 7461 2044 		.ascii	"ta Direction:     %s\r\n    - Item Flags:         0x%02X\r\n"
 1322      6972 6563 
 1322      7469 6F6E 
 1322      3A20 2020 
 1322      2020 2573 
 1323 0228 2020 2020 		.ascii	"    - Item Offset (Bits): 0x%02X\r\n    - Item Size (Bits): "
 1323      2D20 4974 
 1323      656D 204F 
 1323      6666 7365 
 1323      7420 2842 
 1324 0262 2020 3078 		.ascii	"  0x%02X\r\n    - Usage Page:         0x%04X\r\n    - Usage"
 1324      2530 3258 
 1324      0D0A 2020 
 1324      2020 2D20 
 1324      5573 6167 
 1325 0299 3A20 2020 		.string	":              0x%04X\r\n    - Unit Type:          0x%08lX\r\n    - Unit Exponent:      0
 1325      2020 2020 
 1325      2020 2020 
 1325      2020 2030 
 1325      7825 3034 
 1328               	__c.4501:
 1329 039a 0D0A 5265 		.string	"\r\nReport Items (%d in Table):\r\n"
 1329      706F 7274 
 1329      2049 7465 
 1329      6D73 2028 
 1329      2564 2069 
 1332               	__c.4493:
 1333 03ba 2020 2B20 		.string	"  + Report ID 0x%02X\r\n    - Input Data:   %d bits (%d bytes)\r\n    - Output Data:  %d 
 1333      5265 706F 
 1333      7274 2049 
 1333      4420 3078 
 1333      2530 3258 
 1336               	__c.4486:
 1337 0449 0D0A 0D0A 		.string	"\r\n\r\nTotal Device Reports: %d\r\n"
 1337      546F 7461 
 1337      6C20 4465 
 1337      7669 6365 
 1337      2052 6570 
 1340               	__c.4477:
 1341 0468 1B5B 3336 		.string	"\033[36mHID Device Report Viewer Running.\r\n\033[37m"
 1341      6D48 4944 
 1341      2044 6576 
 1341      6963 6520 
 1341      5265 706F 
 1342               	.global	Device_HID_Interface
 1343               		.data
 1346               	Device_HID_Interface:
 1347 0000 01        		.byte	1
 1348 0001 00        		.byte	0
 1349 0002 02        		.byte	2
 1350 0003 00        		.byte	0
 1351 0004 00        		.byte	0
 1352 0005 0000      		.word	HIDReportInfo
 1353 0007 0000 0000 		.zero	12
 1353      0000 0000 
 1353      0000 0000 
 1354               		.local	HIDReportInfo
 1355               		.comm	HIDReportInfo,985,1
 1356               		.text
 1357               	.Letext0:
 1358               		.file 6 "/usr/lib/avr/include/stdint.h"
 1359               		.file 7 "/usr/lib/avr/include/stdio.h"
 1360               		.file 8 "../../LUFA/Drivers/USB/Core/AVR8/../HostStandardReq.h"
 1361               		.file 9 "../../LUFA/Drivers/USB/Core/AVR8/USBController_AVR8.h"
 1362               		.file 10 "../../LUFA/Drivers/USB/Core/ConfigDescriptor.h"
 1363               		.file 11 "../../LUFA/Drivers/USB/Class/Host/../Common/HIDParser.h"
 1364               		.file 12 "../../LUFA/Drivers/USB/Class/Host/../Common/HID.h"
 1365               		.file 13 "../../LUFA/Drivers/USB/Class/Host/HID.h"
 1366               		.file 14 "../../LUFA/Drivers/USB/Core/USBTask.h"