   1               		.file	"SCSI.c"
   2               	__SP_H__ = 0x3e
   3               	__SP_L__ = 0x3d
   4               	__SREG__ = 0x3f
   5               	__RAMPZ__ = 0x3b
   6               	__tmp_reg__ = 0
   7               	__zero_reg__ = 1
   8               		.text
   9               	.Ltext0:
  10               		.cfi_sections	.debug_frame
  11               		.section	.text.SCSI_Command_ReadWrite_10,"ax",@progbits
  13               	SCSI_Command_ReadWrite_10:
  14               	.LFB210:
  15               		.file 1 "Lib/SCSI.c"
   1:Lib/SCSI.c    **** /*
   2:Lib/SCSI.c    ****              LUFA Library
   3:Lib/SCSI.c    ****      Copyright (C) Dean Camera, 2011.
   4:Lib/SCSI.c    **** 
   5:Lib/SCSI.c    ****   dean [at] fourwalledcubicle [dot] com
   6:Lib/SCSI.c    ****            www.lufa-lib.org
   7:Lib/SCSI.c    **** */
   8:Lib/SCSI.c    **** 
   9:Lib/SCSI.c    **** /*
  10:Lib/SCSI.c    ****   Copyright 2011  Dean Camera (dean [at] fourwalledcubicle [dot] com)
  11:Lib/SCSI.c    **** 
  12:Lib/SCSI.c    ****   Permission to use, copy, modify, distribute, and sell this
  13:Lib/SCSI.c    ****   software and its documentation for any purpose is hereby granted
  14:Lib/SCSI.c    ****   without fee, provided that the above copyright notice appear in
  15:Lib/SCSI.c    ****   all copies and that both that the copyright notice and this
  16:Lib/SCSI.c    ****   permission notice and warranty disclaimer appear in supporting
  17:Lib/SCSI.c    ****   documentation, and that the name of the author not be used in
  18:Lib/SCSI.c    ****   advertising or publicity pertaining to distribution of the
  19:Lib/SCSI.c    ****   software without specific, written prior permission.
  20:Lib/SCSI.c    **** 
  21:Lib/SCSI.c    ****   The author disclaim all warranties with regard to this
  22:Lib/SCSI.c    ****   software, including all implied warranties of merchantability
  23:Lib/SCSI.c    ****   and fitness.  In no event shall the author be liable for any
  24:Lib/SCSI.c    ****   special, indirect or consequential damages or any damages
  25:Lib/SCSI.c    ****   whatsoever resulting from loss of use, data or profits, whether
  26:Lib/SCSI.c    ****   in an action of contract, negligence or other tortious action,
  27:Lib/SCSI.c    ****   arising out of or in connection with the use or performance of
  28:Lib/SCSI.c    ****   this software.
  29:Lib/SCSI.c    **** */
  30:Lib/SCSI.c    **** 
  31:Lib/SCSI.c    **** /** \file
  32:Lib/SCSI.c    ****  *
  33:Lib/SCSI.c    ****  *  SCSI command processing routines, for SCSI commands issued by the host. Mass Storage
  34:Lib/SCSI.c    ****  *  devices use a thin "Bulk-Only Transport" protocol for issuing commands and status information,
  35:Lib/SCSI.c    ****  *  which wrap around standard SCSI device commands for controlling the actual storage medium.
  36:Lib/SCSI.c    ****  */
  37:Lib/SCSI.c    **** 
  38:Lib/SCSI.c    **** #define  INCLUDE_FROM_SCSI_C
  39:Lib/SCSI.c    **** #include "SCSI.h"
  40:Lib/SCSI.c    **** 
  41:Lib/SCSI.c    **** /** Structure to hold the SCSI response data to a SCSI INQUIRY command. This gives information abou
  42:Lib/SCSI.c    ****  *  features and capabilities.
  43:Lib/SCSI.c    ****  */
  44:Lib/SCSI.c    **** static const SCSI_Inquiry_Response_t InquiryData =
  45:Lib/SCSI.c    **** 	{
  46:Lib/SCSI.c    **** 		.DeviceType          = DEVICE_TYPE_BLOCK,
  47:Lib/SCSI.c    **** 		.PeripheralQualifier = 0,
  48:Lib/SCSI.c    **** 
  49:Lib/SCSI.c    **** 		.Removable           = true,
  50:Lib/SCSI.c    **** 
  51:Lib/SCSI.c    **** 		.Version             = 0,
  52:Lib/SCSI.c    **** 
  53:Lib/SCSI.c    **** 		.ResponseDataFormat  = 2,
  54:Lib/SCSI.c    **** 		.NormACA             = false,
  55:Lib/SCSI.c    **** 		.TrmTsk              = false,
  56:Lib/SCSI.c    **** 		.AERC                = false,
  57:Lib/SCSI.c    **** 
  58:Lib/SCSI.c    **** 		.AdditionalLength    = 0x1F,
  59:Lib/SCSI.c    **** 
  60:Lib/SCSI.c    **** 		.SoftReset           = false,
  61:Lib/SCSI.c    **** 		.CmdQue              = false,
  62:Lib/SCSI.c    **** 		.Linked              = false,
  63:Lib/SCSI.c    **** 		.Sync                = false,
  64:Lib/SCSI.c    **** 		.WideBus16Bit        = false,
  65:Lib/SCSI.c    **** 		.WideBus32Bit        = false,
  66:Lib/SCSI.c    **** 		.RelAddr             = false,
  67:Lib/SCSI.c    **** 
  68:Lib/SCSI.c    **** 		.VendorID            = "LUFA",
  69:Lib/SCSI.c    **** 		.ProductID           = "Dataflash Disk",
  70:Lib/SCSI.c    **** 		.RevisionID          = {'0','.','0','0'},
  71:Lib/SCSI.c    **** 	};
  72:Lib/SCSI.c    **** 
  73:Lib/SCSI.c    **** /** Structure to hold the sense data for the last issued SCSI command, which is returned to the hos
  74:Lib/SCSI.c    ****  *  command is issued. This gives information on exactly why the last command failed to complete.
  75:Lib/SCSI.c    ****  */
  76:Lib/SCSI.c    **** static SCSI_Request_Sense_Response_t SenseData =
  77:Lib/SCSI.c    **** 	{
  78:Lib/SCSI.c    **** 		.ResponseCode        = 0x70,
  79:Lib/SCSI.c    **** 		.AdditionalLength    = 0x0A,
  80:Lib/SCSI.c    **** 	};
  81:Lib/SCSI.c    **** 
  82:Lib/SCSI.c    **** 
  83:Lib/SCSI.c    **** /** Main routine to process the SCSI command located in the Command Block Wrapper read from the hos
  84:Lib/SCSI.c    ****  *  to the appropriate SCSI command handling routine if the issued command is supported by the devi
  85:Lib/SCSI.c    ****  *  a command failure due to a ILLEGAL REQUEST.
  86:Lib/SCSI.c    ****  *
  87:Lib/SCSI.c    ****  *  \param[in] MSInterfaceInfo  Pointer to the Mass Storage class interface structure that the comm
  88:Lib/SCSI.c    ****  *
  89:Lib/SCSI.c    ****  *  \return Boolean true if the command completed successfully, false otherwise
  90:Lib/SCSI.c    ****  */
  91:Lib/SCSI.c    **** bool SCSI_DecodeSCSICommand(USB_ClassInfo_MS_Device_t* const MSInterfaceInfo)
  92:Lib/SCSI.c    **** {
  93:Lib/SCSI.c    **** 	bool CommandSuccess = false;
  94:Lib/SCSI.c    **** 
  95:Lib/SCSI.c    **** 	/* Run the appropriate SCSI command hander function based on the passed command */
  96:Lib/SCSI.c    **** 	switch (MSInterfaceInfo->State.CommandBlock.SCSICommandData[0])
  97:Lib/SCSI.c    **** 	{
  98:Lib/SCSI.c    **** 		case SCSI_CMD_INQUIRY:
  99:Lib/SCSI.c    **** 			CommandSuccess = SCSI_Command_Inquiry(MSInterfaceInfo);
 100:Lib/SCSI.c    **** 			break;
 101:Lib/SCSI.c    **** 		case SCSI_CMD_REQUEST_SENSE:
 102:Lib/SCSI.c    **** 			CommandSuccess = SCSI_Command_Request_Sense(MSInterfaceInfo);
 103:Lib/SCSI.c    **** 			break;
 104:Lib/SCSI.c    **** 		case SCSI_CMD_READ_CAPACITY_10:
 105:Lib/SCSI.c    **** 			CommandSuccess = SCSI_Command_Read_Capacity_10(MSInterfaceInfo);
 106:Lib/SCSI.c    **** 			break;
 107:Lib/SCSI.c    **** 		case SCSI_CMD_SEND_DIAGNOSTIC:
 108:Lib/SCSI.c    **** 			CommandSuccess = SCSI_Command_Send_Diagnostic(MSInterfaceInfo);
 109:Lib/SCSI.c    **** 			break;
 110:Lib/SCSI.c    **** 		case SCSI_CMD_WRITE_10:
 111:Lib/SCSI.c    **** 			CommandSuccess = SCSI_Command_ReadWrite_10(MSInterfaceInfo, DATA_WRITE);
 112:Lib/SCSI.c    **** 			break;
 113:Lib/SCSI.c    **** 		case SCSI_CMD_READ_10:
 114:Lib/SCSI.c    **** 			CommandSuccess = SCSI_Command_ReadWrite_10(MSInterfaceInfo, DATA_READ);
 115:Lib/SCSI.c    **** 			break;
 116:Lib/SCSI.c    **** 		case SCSI_CMD_MODE_SENSE_6:
 117:Lib/SCSI.c    **** 			CommandSuccess = SCSI_Command_ModeSense_6(MSInterfaceInfo);
 118:Lib/SCSI.c    **** 			break;
 119:Lib/SCSI.c    **** 		case SCSI_CMD_TEST_UNIT_READY:
 120:Lib/SCSI.c    **** 		case SCSI_CMD_PREVENT_ALLOW_MEDIUM_REMOVAL:
 121:Lib/SCSI.c    **** 		case SCSI_CMD_VERIFY_10:
 122:Lib/SCSI.c    **** 			/* These commands should just succeed, no handling required */
 123:Lib/SCSI.c    **** 			CommandSuccess = true;
 124:Lib/SCSI.c    **** 			MSInterfaceInfo->State.CommandBlock.DataTransferLength = 0;
 125:Lib/SCSI.c    **** 			break;
 126:Lib/SCSI.c    **** 		default:
 127:Lib/SCSI.c    **** 			/* Update the SENSE key to reflect the invalid command */
 128:Lib/SCSI.c    **** 			SCSI_SET_SENSE(SCSI_SENSE_KEY_ILLEGAL_REQUEST,
 129:Lib/SCSI.c    **** 		                   SCSI_ASENSE_INVALID_COMMAND,
 130:Lib/SCSI.c    **** 		                   SCSI_ASENSEQ_NO_QUALIFIER);
 131:Lib/SCSI.c    **** 			break;
 132:Lib/SCSI.c    **** 	}
 133:Lib/SCSI.c    **** 
 134:Lib/SCSI.c    **** 	/* Check if command was successfully processed */
 135:Lib/SCSI.c    **** 	if (CommandSuccess)
 136:Lib/SCSI.c    **** 	{
 137:Lib/SCSI.c    **** 		SCSI_SET_SENSE(SCSI_SENSE_KEY_GOOD,
 138:Lib/SCSI.c    **** 		               SCSI_ASENSE_NO_ADDITIONAL_INFORMATION,
 139:Lib/SCSI.c    **** 		               SCSI_ASENSEQ_NO_QUALIFIER);
 140:Lib/SCSI.c    **** 
 141:Lib/SCSI.c    **** 		return true;
 142:Lib/SCSI.c    **** 	}
 143:Lib/SCSI.c    **** 
 144:Lib/SCSI.c    **** 	return false;
 145:Lib/SCSI.c    **** }
 146:Lib/SCSI.c    **** 
 147:Lib/SCSI.c    **** /** Command processing for an issued SCSI INQUIRY command. This command returns information about t
 148:Lib/SCSI.c    ****  *  and capabilities to the host.
 149:Lib/SCSI.c    ****  *
 150:Lib/SCSI.c    ****  *  \param[in] MSInterfaceInfo  Pointer to the Mass Storage class interface structure that the comm
 151:Lib/SCSI.c    ****  *
 152:Lib/SCSI.c    ****  *  \return Boolean true if the command completed successfully, false otherwise.
 153:Lib/SCSI.c    ****  */
 154:Lib/SCSI.c    **** static bool SCSI_Command_Inquiry(USB_ClassInfo_MS_Device_t* const MSInterfaceInfo)
 155:Lib/SCSI.c    **** {
 156:Lib/SCSI.c    **** 	uint16_t AllocationLength  = SwapEndian_16(*(uint16_t*)&MSInterfaceInfo->State.CommandBlock.SCSICo
 157:Lib/SCSI.c    **** 	uint16_t BytesTransferred  = MIN(AllocationLength, sizeof(InquiryData));
 158:Lib/SCSI.c    **** 
 159:Lib/SCSI.c    **** 	/* Only the standard INQUIRY data is supported, check if any optional INQUIRY bits set */
 160:Lib/SCSI.c    **** 	if ((MSInterfaceInfo->State.CommandBlock.SCSICommandData[1] & ((1 << 0) | (1 << 1))) ||
 161:Lib/SCSI.c    **** 	     MSInterfaceInfo->State.CommandBlock.SCSICommandData[2])
 162:Lib/SCSI.c    **** 	{
 163:Lib/SCSI.c    **** 		/* Optional but unsupported bits set - update the SENSE key and fail the request */
 164:Lib/SCSI.c    **** 		SCSI_SET_SENSE(SCSI_SENSE_KEY_ILLEGAL_REQUEST,
 165:Lib/SCSI.c    **** 		               SCSI_ASENSE_INVALID_FIELD_IN_CDB,
 166:Lib/SCSI.c    **** 		               SCSI_ASENSEQ_NO_QUALIFIER);
 167:Lib/SCSI.c    **** 
 168:Lib/SCSI.c    **** 		return false;
 169:Lib/SCSI.c    **** 	}
 170:Lib/SCSI.c    **** 
 171:Lib/SCSI.c    **** 	Endpoint_Write_Stream_LE(&InquiryData, BytesTransferred, NULL);
 172:Lib/SCSI.c    **** 
 173:Lib/SCSI.c    **** 	/* Pad out remaining bytes with 0x00 */
 174:Lib/SCSI.c    **** 	Endpoint_Null_Stream((AllocationLength - BytesTransferred), NULL);
 175:Lib/SCSI.c    **** 
 176:Lib/SCSI.c    **** 	/* Finalize the stream transfer to send the last packet */
 177:Lib/SCSI.c    **** 	Endpoint_ClearIN();
 178:Lib/SCSI.c    **** 
 179:Lib/SCSI.c    **** 	/* Succeed the command and update the bytes transferred counter */
 180:Lib/SCSI.c    **** 	MSInterfaceInfo->State.CommandBlock.DataTransferLength -= BytesTransferred;
 181:Lib/SCSI.c    **** 
 182:Lib/SCSI.c    **** 	return true;
 183:Lib/SCSI.c    **** }
 184:Lib/SCSI.c    **** 
 185:Lib/SCSI.c    **** /** Command processing for an issued SCSI REQUEST SENSE command. This command returns information a
 186:Lib/SCSI.c    ****  *  including the error code and additional error information so that the host can determine why a 
 187:Lib/SCSI.c    ****  *
 188:Lib/SCSI.c    ****  *  \param[in] MSInterfaceInfo  Pointer to the Mass Storage class interface structure that the comm
 189:Lib/SCSI.c    ****  *
 190:Lib/SCSI.c    ****  *  \return Boolean true if the command completed successfully, false otherwise.
 191:Lib/SCSI.c    ****  */
 192:Lib/SCSI.c    **** static bool SCSI_Command_Request_Sense(USB_ClassInfo_MS_Device_t* const MSInterfaceInfo)
 193:Lib/SCSI.c    **** {
 194:Lib/SCSI.c    **** 	uint8_t  AllocationLength = MSInterfaceInfo->State.CommandBlock.SCSICommandData[4];
 195:Lib/SCSI.c    **** 	uint8_t  BytesTransferred = MIN(AllocationLength, sizeof(SenseData));
 196:Lib/SCSI.c    **** 
 197:Lib/SCSI.c    **** 	Endpoint_Write_Stream_LE(&SenseData, BytesTransferred, NULL);
 198:Lib/SCSI.c    **** 	Endpoint_Null_Stream((AllocationLength - BytesTransferred), NULL);
 199:Lib/SCSI.c    **** 	Endpoint_ClearIN();
 200:Lib/SCSI.c    **** 
 201:Lib/SCSI.c    **** 	/* Succeed the command and update the bytes transferred counter */
 202:Lib/SCSI.c    **** 	MSInterfaceInfo->State.CommandBlock.DataTransferLength -= BytesTransferred;
 203:Lib/SCSI.c    **** 
 204:Lib/SCSI.c    **** 	return true;
 205:Lib/SCSI.c    **** }
 206:Lib/SCSI.c    **** 
 207:Lib/SCSI.c    **** /** Command processing for an issued SCSI READ CAPACITY (10) command. This command returns informat
 208:Lib/SCSI.c    ****  *  on the selected Logical Unit (drive), as a number of OS-sized blocks.
 209:Lib/SCSI.c    ****  *
 210:Lib/SCSI.c    ****  *  \param[in] MSInterfaceInfo  Pointer to the Mass Storage class interface structure that the comm
 211:Lib/SCSI.c    ****  *
 212:Lib/SCSI.c    ****  *  \return Boolean true if the command completed successfully, false otherwise.
 213:Lib/SCSI.c    ****  */
 214:Lib/SCSI.c    **** static bool SCSI_Command_Read_Capacity_10(USB_ClassInfo_MS_Device_t* const MSInterfaceInfo)
 215:Lib/SCSI.c    **** {
 216:Lib/SCSI.c    **** 	uint32_t LastBlockAddressInLUN = (VIRTUAL_MEMORY_BLOCKS - 1);
 217:Lib/SCSI.c    **** 	uint32_t MediaBlockSize        = VIRTUAL_MEMORY_BLOCK_SIZE;
 218:Lib/SCSI.c    **** 
 219:Lib/SCSI.c    **** 	Endpoint_Write_Stream_BE(&LastBlockAddressInLUN, sizeof(LastBlockAddressInLUN), NULL);
 220:Lib/SCSI.c    **** 	Endpoint_Write_Stream_BE(&MediaBlockSize, sizeof(MediaBlockSize), NULL);
 221:Lib/SCSI.c    **** 	Endpoint_ClearIN();
 222:Lib/SCSI.c    **** 
 223:Lib/SCSI.c    **** 	/* Succeed the command and update the bytes transferred counter */
 224:Lib/SCSI.c    **** 	MSInterfaceInfo->State.CommandBlock.DataTransferLength -= 8;
 225:Lib/SCSI.c    **** 
 226:Lib/SCSI.c    **** 	return true;
 227:Lib/SCSI.c    **** }
 228:Lib/SCSI.c    **** 
 229:Lib/SCSI.c    **** /** Command processing for an issued SCSI SEND DIAGNOSTIC command. This command performs a quick ch
 230:Lib/SCSI.c    ****  *  board, and indicates if they are present and functioning correctly. Only the Self-Test portion 
 231:Lib/SCSI.c    ****  *  supported.
 232:Lib/SCSI.c    ****  *
 233:Lib/SCSI.c    ****  *  \param[in] MSInterfaceInfo  Pointer to the Mass Storage class interface structure that the comm
 234:Lib/SCSI.c    ****  *
 235:Lib/SCSI.c    ****  *  \return Boolean true if the command completed successfully, false otherwise.
 236:Lib/SCSI.c    ****  */
 237:Lib/SCSI.c    **** static bool SCSI_Command_Send_Diagnostic(USB_ClassInfo_MS_Device_t* const MSInterfaceInfo)
 238:Lib/SCSI.c    **** {
 239:Lib/SCSI.c    **** 	/* Check to see if the SELF TEST bit is not set */
 240:Lib/SCSI.c    **** 	if (!(MSInterfaceInfo->State.CommandBlock.SCSICommandData[1] & (1 << 2)))
 241:Lib/SCSI.c    **** 	{
 242:Lib/SCSI.c    **** 		/* Only self-test supported - update SENSE key and fail the command */
 243:Lib/SCSI.c    **** 		SCSI_SET_SENSE(SCSI_SENSE_KEY_ILLEGAL_REQUEST,
 244:Lib/SCSI.c    **** 		               SCSI_ASENSE_INVALID_FIELD_IN_CDB,
 245:Lib/SCSI.c    **** 		               SCSI_ASENSEQ_NO_QUALIFIER);
 246:Lib/SCSI.c    **** 
 247:Lib/SCSI.c    **** 		return false;
 248:Lib/SCSI.c    **** 	}
 249:Lib/SCSI.c    **** 
 250:Lib/SCSI.c    **** 	/* Check to see if all attached Dataflash ICs are functional */
 251:Lib/SCSI.c    **** 	if (!(DataflashManager_CheckDataflashOperation()))
 252:Lib/SCSI.c    **** 	{
 253:Lib/SCSI.c    **** 		/* Update SENSE key with a hardware error condition and return command fail */
 254:Lib/SCSI.c    **** 		SCSI_SET_SENSE(SCSI_SENSE_KEY_HARDWARE_ERROR,
 255:Lib/SCSI.c    **** 		               SCSI_ASENSE_NO_ADDITIONAL_INFORMATION,
 256:Lib/SCSI.c    **** 		               SCSI_ASENSEQ_NO_QUALIFIER);
 257:Lib/SCSI.c    **** 
 258:Lib/SCSI.c    **** 		return false;
 259:Lib/SCSI.c    **** 	}
 260:Lib/SCSI.c    **** 
 261:Lib/SCSI.c    **** 	/* Succeed the command and update the bytes transferred counter */
 262:Lib/SCSI.c    **** 	MSInterfaceInfo->State.CommandBlock.DataTransferLength = 0;
 263:Lib/SCSI.c    **** 
 264:Lib/SCSI.c    **** 	return true;
 265:Lib/SCSI.c    **** }
 266:Lib/SCSI.c    **** 
 267:Lib/SCSI.c    **** /** Command processing for an issued SCSI READ (10) or WRITE (10) command. This command reads in th
 268:Lib/SCSI.c    ****  *  and total number of blocks to process, then calls the appropriate low-level Dataflash routine t
 269:Lib/SCSI.c    ****  *  reading and writing of the data.
 270:Lib/SCSI.c    ****  *
 271:Lib/SCSI.c    ****  *  \param[in] MSInterfaceInfo  Pointer to the Mass Storage class interface structure that the comm
 272:Lib/SCSI.c    ****  *  \param[in] IsDataRead  Indicates if the command is a READ (10) command or WRITE (10) command (D
 273:Lib/SCSI.c    ****  *
 274:Lib/SCSI.c    ****  *  \return Boolean true if the command completed successfully, false otherwise.
 275:Lib/SCSI.c    ****  */
 276:Lib/SCSI.c    **** static bool SCSI_Command_ReadWrite_10(USB_ClassInfo_MS_Device_t* const MSInterfaceInfo,
 277:Lib/SCSI.c    ****                                       const bool IsDataRead)
 278:Lib/SCSI.c    **** {
  16               		.loc 1 278 0
  17               		.cfi_startproc
  18               	.LVL0:
  19 0000 0F93      		push r16
  20               	.LCFI0:
  21               		.cfi_def_cfa_offset 3
  22               		.cfi_offset 16, -2
  23 0002 1F93      		push r17
  24               	.LCFI1:
  25               		.cfi_def_cfa_offset 4
  26               		.cfi_offset 17, -3
  27 0004 CF93      		push r28
  28               	.LCFI2:
  29               		.cfi_def_cfa_offset 5
  30               		.cfi_offset 28, -4
  31 0006 DF93      		push r29
  32               	.LCFI3:
  33               		.cfi_def_cfa_offset 6
  34               		.cfi_offset 29, -5
  35               	/* prologue: function */
  36               	/* frame size = 0 */
  37               	/* stack size = 4 */
  38               	.L__stack_usage = 4
  39 0008 EC01      		movw r28,r24
  40 000a 962F      		mov r25,r22
  41               	.LVL1:
  42               	.LBB24:
  43               	.LBB25:
  44               		.file 2 "../../LUFA/Drivers/USB/../../Common/Endianness.h"
   1:../../LUFA/Drivers/USB/../../Common/Endianness.h **** /*
   2:../../LUFA/Drivers/USB/../../Common/Endianness.h ****              LUFA Library
   3:../../LUFA/Drivers/USB/../../Common/Endianness.h ****      Copyright (C) Dean Camera, 2011.
   4:../../LUFA/Drivers/USB/../../Common/Endianness.h **** 
   5:../../LUFA/Drivers/USB/../../Common/Endianness.h ****   dean [at] fourwalledcubicle [dot] com
   6:../../LUFA/Drivers/USB/../../Common/Endianness.h ****            www.lufa-lib.org
   7:../../LUFA/Drivers/USB/../../Common/Endianness.h **** */
   8:../../LUFA/Drivers/USB/../../Common/Endianness.h **** 
   9:../../LUFA/Drivers/USB/../../Common/Endianness.h **** /*
  10:../../LUFA/Drivers/USB/../../Common/Endianness.h ****   Copyright 2011  Dean Camera (dean [at] fourwalledcubicle [dot] com)
  11:../../LUFA/Drivers/USB/../../Common/Endianness.h **** 
  12:../../LUFA/Drivers/USB/../../Common/Endianness.h ****   Permission to use, copy, modify, distribute, and sell this
  13:../../LUFA/Drivers/USB/../../Common/Endianness.h ****   software and its documentation for any purpose is hereby granted
  14:../../LUFA/Drivers/USB/../../Common/Endianness.h ****   without fee, provided that the above copyright notice appear in
  15:../../LUFA/Drivers/USB/../../Common/Endianness.h ****   all copies and that both that the copyright notice and this
  16:../../LUFA/Drivers/USB/../../Common/Endianness.h ****   permission notice and warranty disclaimer appear in supporting
  17:../../LUFA/Drivers/USB/../../Common/Endianness.h ****   documentation, and that the name of the author not be used in
  18:../../LUFA/Drivers/USB/../../Common/Endianness.h ****   advertising or publicity pertaining to distribution of the
  19:../../LUFA/Drivers/USB/../../Common/Endianness.h ****   software without specific, written prior permission.
  20:../../LUFA/Drivers/USB/../../Common/Endianness.h **** 
  21:../../LUFA/Drivers/USB/../../Common/Endianness.h ****   The author disclaim all warranties with regard to this
  22:../../LUFA/Drivers/USB/../../Common/Endianness.h ****   software, including all implied warranties of merchantability
  23:../../LUFA/Drivers/USB/../../Common/Endianness.h ****   and fitness.  In no event shall the author be liable for any
  24:../../LUFA/Drivers/USB/../../Common/Endianness.h ****   special, indirect or consequential damages or any damages
  25:../../LUFA/Drivers/USB/../../Common/Endianness.h ****   whatsoever resulting from loss of use, data or profits, whether
  26:../../LUFA/Drivers/USB/../../Common/Endianness.h ****   in an action of contract, negligence or other tortious action,
  27:../../LUFA/Drivers/USB/../../Common/Endianness.h ****   arising out of or in connection with the use or performance of
  28:../../LUFA/Drivers/USB/../../Common/Endianness.h ****   this software.
  29:../../LUFA/Drivers/USB/../../Common/Endianness.h **** */
  30:../../LUFA/Drivers/USB/../../Common/Endianness.h **** 
  31:../../LUFA/Drivers/USB/../../Common/Endianness.h **** /** \file
  32:../../LUFA/Drivers/USB/../../Common/Endianness.h ****  *  \brief Endianness and Byte Ordering macros and functions.
  33:../../LUFA/Drivers/USB/../../Common/Endianness.h ****  *
  34:../../LUFA/Drivers/USB/../../Common/Endianness.h ****  *  \copydetails Group_Endianness
  35:../../LUFA/Drivers/USB/../../Common/Endianness.h ****  */
  36:../../LUFA/Drivers/USB/../../Common/Endianness.h **** 
  37:../../LUFA/Drivers/USB/../../Common/Endianness.h **** /** \ingroup Group_Endianness
  38:../../LUFA/Drivers/USB/../../Common/Endianness.h ****  *  \defgroup Group_ByteSwapping Byte Reordering
  39:../../LUFA/Drivers/USB/../../Common/Endianness.h ****  *  \brief Macros and functions for forced byte reordering.
  40:../../LUFA/Drivers/USB/../../Common/Endianness.h ****  */
  41:../../LUFA/Drivers/USB/../../Common/Endianness.h **** 
  42:../../LUFA/Drivers/USB/../../Common/Endianness.h **** /** \ingroup Group_Endianness
  43:../../LUFA/Drivers/USB/../../Common/Endianness.h ****  *  \defgroup Group_EndianConversion Endianness Conversion
  44:../../LUFA/Drivers/USB/../../Common/Endianness.h ****  *  \brief Macros and functions for automatic endianness conversion.
  45:../../LUFA/Drivers/USB/../../Common/Endianness.h ****  */
  46:../../LUFA/Drivers/USB/../../Common/Endianness.h **** 
  47:../../LUFA/Drivers/USB/../../Common/Endianness.h **** /** \ingroup Group_Common
  48:../../LUFA/Drivers/USB/../../Common/Endianness.h ****  *  \defgroup Group_Endianness Endianness and Byte Ordering
  49:../../LUFA/Drivers/USB/../../Common/Endianness.h ****  *  \brief Convenience macros and functions relating to byte (re-)ordering
  50:../../LUFA/Drivers/USB/../../Common/Endianness.h ****  *
  51:../../LUFA/Drivers/USB/../../Common/Endianness.h ****  *  Common library convenience macros and functions relating to byte (re-)ordering.
  52:../../LUFA/Drivers/USB/../../Common/Endianness.h ****  *
  53:../../LUFA/Drivers/USB/../../Common/Endianness.h ****  *  @{
  54:../../LUFA/Drivers/USB/../../Common/Endianness.h ****  */
  55:../../LUFA/Drivers/USB/../../Common/Endianness.h **** 
  56:../../LUFA/Drivers/USB/../../Common/Endianness.h **** #ifndef __LUFA_ENDIANNESS_H__
  57:../../LUFA/Drivers/USB/../../Common/Endianness.h **** #define __LUFA_ENDIANNESS_H__
  58:../../LUFA/Drivers/USB/../../Common/Endianness.h **** 
  59:../../LUFA/Drivers/USB/../../Common/Endianness.h **** 	/* Enable C linkage for C++ Compilers: */
  60:../../LUFA/Drivers/USB/../../Common/Endianness.h **** 		#if defined(__cplusplus)
  61:../../LUFA/Drivers/USB/../../Common/Endianness.h **** 			extern "C" {
  62:../../LUFA/Drivers/USB/../../Common/Endianness.h **** 		#endif
  63:../../LUFA/Drivers/USB/../../Common/Endianness.h **** 
  64:../../LUFA/Drivers/USB/../../Common/Endianness.h **** 	/* Preprocessor Checks: */
  65:../../LUFA/Drivers/USB/../../Common/Endianness.h **** 		#if !defined(__INCLUDE_FROM_COMMON_H)
  66:../../LUFA/Drivers/USB/../../Common/Endianness.h **** 			#error Do not include this file directly. Include LUFA/Common/Common.h instead to gain this func
  67:../../LUFA/Drivers/USB/../../Common/Endianness.h **** 		#endif
  68:../../LUFA/Drivers/USB/../../Common/Endianness.h **** 		
  69:../../LUFA/Drivers/USB/../../Common/Endianness.h **** 		#if !(defined(ARCH_BIG_ENDIAN) || defined(ARCH_LITTLE_ENDIAN))
  70:../../LUFA/Drivers/USB/../../Common/Endianness.h **** 			#error ARCH_BIG_ENDIAN or ARCH_LITTLE_ENDIAN not set for the specified architecture.
  71:../../LUFA/Drivers/USB/../../Common/Endianness.h **** 		#endif
  72:../../LUFA/Drivers/USB/../../Common/Endianness.h **** 
  73:../../LUFA/Drivers/USB/../../Common/Endianness.h **** 	/* Public Interface - May be used in end-application: */
  74:../../LUFA/Drivers/USB/../../Common/Endianness.h **** 		/* Macros: */
  75:../../LUFA/Drivers/USB/../../Common/Endianness.h **** 			/** Swaps the byte ordering of a 16-bit value at compile-time. Do not use this macro for swappin
  76:../../LUFA/Drivers/USB/../../Common/Endianness.h **** 			 *  of dynamic values computed at runtime, use \ref SwapEndian_16() instead. The result of this 
  77:../../LUFA/Drivers/USB/../../Common/Endianness.h **** 			 *  inside struct or other variable initializers outside of a function, something that is not po
  78:../../LUFA/Drivers/USB/../../Common/Endianness.h **** 			 *  inline function variant.
  79:../../LUFA/Drivers/USB/../../Common/Endianness.h **** 			 *
  80:../../LUFA/Drivers/USB/../../Common/Endianness.h **** 			 *  \ingroup Group_ByteSwapping
  81:../../LUFA/Drivers/USB/../../Common/Endianness.h **** 			 *
  82:../../LUFA/Drivers/USB/../../Common/Endianness.h **** 			 *  \param[in] x  16-bit value whose byte ordering is to be swapped.
  83:../../LUFA/Drivers/USB/../../Common/Endianness.h **** 			 *
  84:../../LUFA/Drivers/USB/../../Common/Endianness.h **** 			 *  \return Input value with the byte ordering reversed.
  85:../../LUFA/Drivers/USB/../../Common/Endianness.h **** 			 */
  86:../../LUFA/Drivers/USB/../../Common/Endianness.h **** 			#define SWAPENDIAN_16(x)            (uint16_t)((((x) & 0xFF00) >> 8) | (((x) & 0x00FF) << 8))
  87:../../LUFA/Drivers/USB/../../Common/Endianness.h **** 
  88:../../LUFA/Drivers/USB/../../Common/Endianness.h **** 			/** Swaps the byte ordering of a 32-bit value at compile-time. Do not use this macro for swappin
  89:../../LUFA/Drivers/USB/../../Common/Endianness.h **** 			 *  of dynamic values computed at runtime- use \ref SwapEndian_32() instead. The result of this 
  90:../../LUFA/Drivers/USB/../../Common/Endianness.h **** 			 *  inside struct or other variable initializers outside of a function, something that is not po
  91:../../LUFA/Drivers/USB/../../Common/Endianness.h **** 			 *  inline function variant.
  92:../../LUFA/Drivers/USB/../../Common/Endianness.h **** 			 *
  93:../../LUFA/Drivers/USB/../../Common/Endianness.h **** 			 *  \ingroup Group_ByteSwapping
  94:../../LUFA/Drivers/USB/../../Common/Endianness.h **** 			 *
  95:../../LUFA/Drivers/USB/../../Common/Endianness.h **** 			 *  \param[in] x  32-bit value whose byte ordering is to be swapped.
  96:../../LUFA/Drivers/USB/../../Common/Endianness.h **** 			 *
  97:../../LUFA/Drivers/USB/../../Common/Endianness.h **** 			 *  \return Input value with the byte ordering reversed.
  98:../../LUFA/Drivers/USB/../../Common/Endianness.h **** 			 */
  99:../../LUFA/Drivers/USB/../../Common/Endianness.h **** 			#define SWAPENDIAN_32(x)            (uint32_t)((((x) & 0xFF000000UL) >> 24UL) | (((x) & 0x00FF00
 100:../../LUFA/Drivers/USB/../../Common/Endianness.h **** 			                                               (((x) & 0x0000FF00UL) << 8UL)  | (((x) & 0x000000
 101:../../LUFA/Drivers/USB/../../Common/Endianness.h **** 
 102:../../LUFA/Drivers/USB/../../Common/Endianness.h **** 			#if defined(ARCH_BIG_ENDIAN) && !defined(le16_to_cpu)
 103:../../LUFA/Drivers/USB/../../Common/Endianness.h **** 				#define le16_to_cpu(x)           SwapEndian_16(x)
 104:../../LUFA/Drivers/USB/../../Common/Endianness.h **** 				#define le32_to_cpu(x)           SwapEndian_32(x)
 105:../../LUFA/Drivers/USB/../../Common/Endianness.h **** 				#define be16_to_cpu(x)           (x)
 106:../../LUFA/Drivers/USB/../../Common/Endianness.h **** 				#define be32_to_cpu(x)           (x)
 107:../../LUFA/Drivers/USB/../../Common/Endianness.h **** 				#define cpu_to_le16(x)           SwapEndian_16(x)
 108:../../LUFA/Drivers/USB/../../Common/Endianness.h **** 				#define cpu_to_le32(x)           SwapEndian_32(x)
 109:../../LUFA/Drivers/USB/../../Common/Endianness.h **** 				#define cpu_to_be16(x)           (x)
 110:../../LUFA/Drivers/USB/../../Common/Endianness.h **** 				#define cpu_to_be32(x)           (x)
 111:../../LUFA/Drivers/USB/../../Common/Endianness.h **** 				#define LE16_TO_CPU(x)           SWAPENDIAN_16(x)
 112:../../LUFA/Drivers/USB/../../Common/Endianness.h **** 				#define LE32_TO_CPU(x)           SWAPENDIAN_32(x)
 113:../../LUFA/Drivers/USB/../../Common/Endianness.h **** 				#define BE16_TO_CPU(x)           (x)
 114:../../LUFA/Drivers/USB/../../Common/Endianness.h **** 				#define BE32_TO_CPU(x)           (x)
 115:../../LUFA/Drivers/USB/../../Common/Endianness.h **** 				#define CPU_TO_LE16(x)           SWAPENDIAN_16(x)
 116:../../LUFA/Drivers/USB/../../Common/Endianness.h **** 				#define CPU_TO_LE32(x)           SWAPENDIAN_32(x)
 117:../../LUFA/Drivers/USB/../../Common/Endianness.h **** 				#define CPU_TO_BE16(x)           (x)
 118:../../LUFA/Drivers/USB/../../Common/Endianness.h **** 				#define CPU_TO_BE32(x)           (x)			
 119:../../LUFA/Drivers/USB/../../Common/Endianness.h **** 			#elif !defined(le16_to_cpu)
 120:../../LUFA/Drivers/USB/../../Common/Endianness.h **** 				/** \name Run-time endianness conversion */
 121:../../LUFA/Drivers/USB/../../Common/Endianness.h **** 				//@{
 122:../../LUFA/Drivers/USB/../../Common/Endianness.h **** 			
 123:../../LUFA/Drivers/USB/../../Common/Endianness.h **** 				/** Performs a conversion between a Little Endian encoded 16-bit piece of data and the
 124:../../LUFA/Drivers/USB/../../Common/Endianness.h **** 				 *  Endianness of the currently selected CPU architecture.
 125:../../LUFA/Drivers/USB/../../Common/Endianness.h **** 				 *
 126:../../LUFA/Drivers/USB/../../Common/Endianness.h **** 				 *  On little endian architectures, this macro does nothing.
 127:../../LUFA/Drivers/USB/../../Common/Endianness.h **** 				 *
 128:../../LUFA/Drivers/USB/../../Common/Endianness.h **** 				 *  \note This macro is designed for run-time conversion of data - for compile-time endianness
 129:../../LUFA/Drivers/USB/../../Common/Endianness.h **** 				 *        conversion, use \ref LE16_TO_CPU instead.
 130:../../LUFA/Drivers/USB/../../Common/Endianness.h **** 				 *
 131:../../LUFA/Drivers/USB/../../Common/Endianness.h **** 				 *  \ingroup Group_EndianConversion
 132:../../LUFA/Drivers/USB/../../Common/Endianness.h **** 				 *
 133:../../LUFA/Drivers/USB/../../Common/Endianness.h **** 				 *  \param[in] x  Data to perform the endianness conversion on.
 134:../../LUFA/Drivers/USB/../../Common/Endianness.h **** 				 *
 135:../../LUFA/Drivers/USB/../../Common/Endianness.h **** 				 *  \return Endian corrected version of the input value.
 136:../../LUFA/Drivers/USB/../../Common/Endianness.h **** 				 */
 137:../../LUFA/Drivers/USB/../../Common/Endianness.h **** 				#define le16_to_cpu(x)           (x)
 138:../../LUFA/Drivers/USB/../../Common/Endianness.h **** 
 139:../../LUFA/Drivers/USB/../../Common/Endianness.h **** 				/** Performs a conversion between a Little Endian encoded 32-bit piece of data and the
 140:../../LUFA/Drivers/USB/../../Common/Endianness.h **** 				 *  Endianness of the currently selected CPU architecture.
 141:../../LUFA/Drivers/USB/../../Common/Endianness.h **** 				 *
 142:../../LUFA/Drivers/USB/../../Common/Endianness.h **** 				 *  On little endian architectures, this macro does nothing.
 143:../../LUFA/Drivers/USB/../../Common/Endianness.h **** 				 *
 144:../../LUFA/Drivers/USB/../../Common/Endianness.h **** 				 *  \note This macro is designed for run-time conversion of data - for compile-time endianness
 145:../../LUFA/Drivers/USB/../../Common/Endianness.h **** 				 *        conversion, use \ref LE32_TO_CPU instead.
 146:../../LUFA/Drivers/USB/../../Common/Endianness.h **** 				 *
 147:../../LUFA/Drivers/USB/../../Common/Endianness.h **** 				 *  \ingroup Group_EndianConversion
 148:../../LUFA/Drivers/USB/../../Common/Endianness.h **** 				 *
 149:../../LUFA/Drivers/USB/../../Common/Endianness.h **** 				 *  \param[in] x  Data to perform the endianness conversion on.
 150:../../LUFA/Drivers/USB/../../Common/Endianness.h **** 				 *
 151:../../LUFA/Drivers/USB/../../Common/Endianness.h **** 				 *  \return Endian corrected version of the input value.
 152:../../LUFA/Drivers/USB/../../Common/Endianness.h **** 				 */
 153:../../LUFA/Drivers/USB/../../Common/Endianness.h **** 				#define le32_to_cpu(x)           (x)
 154:../../LUFA/Drivers/USB/../../Common/Endianness.h **** 
 155:../../LUFA/Drivers/USB/../../Common/Endianness.h **** 				/** Performs a conversion between a Big Endian encoded 16-bit piece of data and the
 156:../../LUFA/Drivers/USB/../../Common/Endianness.h **** 				 *  Endianness of the currently selected CPU architecture.
 157:../../LUFA/Drivers/USB/../../Common/Endianness.h **** 				 *
 158:../../LUFA/Drivers/USB/../../Common/Endianness.h **** 				 *  On big endian architectures, this macro does nothing.
 159:../../LUFA/Drivers/USB/../../Common/Endianness.h **** 				 *
 160:../../LUFA/Drivers/USB/../../Common/Endianness.h **** 				 *  \note This macro is designed for run-time conversion of data - for compile-time endianness
 161:../../LUFA/Drivers/USB/../../Common/Endianness.h **** 				 *        conversion, use \ref BE16_TO_CPU instead.
 162:../../LUFA/Drivers/USB/../../Common/Endianness.h **** 				 *
 163:../../LUFA/Drivers/USB/../../Common/Endianness.h **** 				 *  \ingroup Group_EndianConversion
 164:../../LUFA/Drivers/USB/../../Common/Endianness.h **** 				 *
 165:../../LUFA/Drivers/USB/../../Common/Endianness.h **** 				 *  \param[in] x  Data to perform the endianness conversion on.
 166:../../LUFA/Drivers/USB/../../Common/Endianness.h **** 				 *
 167:../../LUFA/Drivers/USB/../../Common/Endianness.h **** 				 *  \return Endian corrected version of the input value.
 168:../../LUFA/Drivers/USB/../../Common/Endianness.h **** 				 */
 169:../../LUFA/Drivers/USB/../../Common/Endianness.h **** 				#define be16_to_cpu(x)           SwapEndian_16(x)
 170:../../LUFA/Drivers/USB/../../Common/Endianness.h **** 
 171:../../LUFA/Drivers/USB/../../Common/Endianness.h **** 				/** Performs a conversion between a Big Endian encoded 32-bit piece of data and the
 172:../../LUFA/Drivers/USB/../../Common/Endianness.h **** 				 *  Endianness of the currently selected CPU architecture.
 173:../../LUFA/Drivers/USB/../../Common/Endianness.h **** 				 *
 174:../../LUFA/Drivers/USB/../../Common/Endianness.h **** 				 *  On big endian architectures, this macro does nothing.
 175:../../LUFA/Drivers/USB/../../Common/Endianness.h **** 				 *
 176:../../LUFA/Drivers/USB/../../Common/Endianness.h **** 				 *  \note This macro is designed for run-time conversion of data - for compile-time endianness
 177:../../LUFA/Drivers/USB/../../Common/Endianness.h **** 				 *        conversion, use \ref BE32_TO_CPU instead.
 178:../../LUFA/Drivers/USB/../../Common/Endianness.h **** 				 *
 179:../../LUFA/Drivers/USB/../../Common/Endianness.h **** 				 *  \ingroup Group_EndianConversion
 180:../../LUFA/Drivers/USB/../../Common/Endianness.h **** 				 *
 181:../../LUFA/Drivers/USB/../../Common/Endianness.h **** 				 *  \param[in] x  Data to perform the endianness conversion on.
 182:../../LUFA/Drivers/USB/../../Common/Endianness.h **** 				 *
 183:../../LUFA/Drivers/USB/../../Common/Endianness.h **** 				 *  \return Endian corrected version of the input value.
 184:../../LUFA/Drivers/USB/../../Common/Endianness.h **** 				 */
 185:../../LUFA/Drivers/USB/../../Common/Endianness.h **** 				#define be32_to_cpu(x)           SwapEndian_32(x)
 186:../../LUFA/Drivers/USB/../../Common/Endianness.h **** 
 187:../../LUFA/Drivers/USB/../../Common/Endianness.h **** 				/** Performs a conversion on a natively encoded 16-bit piece of data to ensure that it
 188:../../LUFA/Drivers/USB/../../Common/Endianness.h **** 				 *  is in Little Endian format regardless of the currently selected CPU architecture.
 189:../../LUFA/Drivers/USB/../../Common/Endianness.h **** 				 *
 190:../../LUFA/Drivers/USB/../../Common/Endianness.h **** 				 *  On little endian architectures, this macro does nothing.
 191:../../LUFA/Drivers/USB/../../Common/Endianness.h **** 				 *
 192:../../LUFA/Drivers/USB/../../Common/Endianness.h **** 				 *  \note This macro is designed for run-time conversion of data - for compile-time endianness
 193:../../LUFA/Drivers/USB/../../Common/Endianness.h **** 				 *        conversion, use \ref CPU_TO_LE16 instead.
 194:../../LUFA/Drivers/USB/../../Common/Endianness.h **** 				 *
 195:../../LUFA/Drivers/USB/../../Common/Endianness.h **** 				 *  \ingroup Group_EndianConversion
 196:../../LUFA/Drivers/USB/../../Common/Endianness.h **** 				 *
 197:../../LUFA/Drivers/USB/../../Common/Endianness.h **** 				 *  \param[in] x  Data to perform the endianness conversion on.
 198:../../LUFA/Drivers/USB/../../Common/Endianness.h **** 				 *
 199:../../LUFA/Drivers/USB/../../Common/Endianness.h **** 				 *  \return Endian corrected version of the input value.
 200:../../LUFA/Drivers/USB/../../Common/Endianness.h **** 				 */
 201:../../LUFA/Drivers/USB/../../Common/Endianness.h **** 				#define cpu_to_le16(x)           (x)
 202:../../LUFA/Drivers/USB/../../Common/Endianness.h **** 
 203:../../LUFA/Drivers/USB/../../Common/Endianness.h **** 				/** Performs a conversion on a natively encoded 32-bit piece of data to ensure that it
 204:../../LUFA/Drivers/USB/../../Common/Endianness.h **** 				 *  is in Little Endian format regardless of the currently selected CPU architecture.
 205:../../LUFA/Drivers/USB/../../Common/Endianness.h **** 				 *
 206:../../LUFA/Drivers/USB/../../Common/Endianness.h **** 				 *  On little endian architectures, this macro does nothing.
 207:../../LUFA/Drivers/USB/../../Common/Endianness.h **** 				 *
 208:../../LUFA/Drivers/USB/../../Common/Endianness.h **** 				 *  \note This macro is designed for run-time conversion of data - for compile-time endianness
 209:../../LUFA/Drivers/USB/../../Common/Endianness.h **** 				 *        conversion, use \ref CPU_TO_LE32 instead.
 210:../../LUFA/Drivers/USB/../../Common/Endianness.h **** 				 *
 211:../../LUFA/Drivers/USB/../../Common/Endianness.h **** 				 *  \ingroup Group_EndianConversion
 212:../../LUFA/Drivers/USB/../../Common/Endianness.h **** 				 *
 213:../../LUFA/Drivers/USB/../../Common/Endianness.h **** 				 *  \param[in] x  Data to perform the endianness conversion on.
 214:../../LUFA/Drivers/USB/../../Common/Endianness.h **** 				 *
 215:../../LUFA/Drivers/USB/../../Common/Endianness.h **** 				 *  \return Endian corrected version of the input value.
 216:../../LUFA/Drivers/USB/../../Common/Endianness.h **** 				 */
 217:../../LUFA/Drivers/USB/../../Common/Endianness.h **** 				#define cpu_to_le32(x)           (x)
 218:../../LUFA/Drivers/USB/../../Common/Endianness.h **** 
 219:../../LUFA/Drivers/USB/../../Common/Endianness.h **** 				/** Performs a conversion on a natively encoded 16-bit piece of data to ensure that it
 220:../../LUFA/Drivers/USB/../../Common/Endianness.h **** 				 *  is in Big Endian format regardless of the currently selected CPU architecture.
 221:../../LUFA/Drivers/USB/../../Common/Endianness.h **** 				 *
 222:../../LUFA/Drivers/USB/../../Common/Endianness.h **** 				 *  On big endian architectures, this macro does nothing.
 223:../../LUFA/Drivers/USB/../../Common/Endianness.h **** 				 *
 224:../../LUFA/Drivers/USB/../../Common/Endianness.h **** 				 *  \note This macro is designed for run-time conversion of data - for compile-time endianness
 225:../../LUFA/Drivers/USB/../../Common/Endianness.h **** 				 *        conversion, use \ref CPU_TO_BE16 instead.
 226:../../LUFA/Drivers/USB/../../Common/Endianness.h **** 				 *
 227:../../LUFA/Drivers/USB/../../Common/Endianness.h **** 				 *  \ingroup Group_EndianConversion
 228:../../LUFA/Drivers/USB/../../Common/Endianness.h **** 				 *
 229:../../LUFA/Drivers/USB/../../Common/Endianness.h **** 				 *  \param[in] x  Data to perform the endianness conversion on.
 230:../../LUFA/Drivers/USB/../../Common/Endianness.h **** 				 *
 231:../../LUFA/Drivers/USB/../../Common/Endianness.h **** 				 *  \return Endian corrected version of the input value.
 232:../../LUFA/Drivers/USB/../../Common/Endianness.h **** 				 */
 233:../../LUFA/Drivers/USB/../../Common/Endianness.h **** 				#define cpu_to_be16(x)           SwapEndian_16(x)
 234:../../LUFA/Drivers/USB/../../Common/Endianness.h **** 
 235:../../LUFA/Drivers/USB/../../Common/Endianness.h **** 				/** Performs a conversion on a natively encoded 32-bit piece of data to ensure that it
 236:../../LUFA/Drivers/USB/../../Common/Endianness.h **** 				 *  is in Big Endian format regardless of the currently selected CPU architecture.
 237:../../LUFA/Drivers/USB/../../Common/Endianness.h **** 				 *
 238:../../LUFA/Drivers/USB/../../Common/Endianness.h **** 				 *  On big endian architectures, this macro does nothing.
 239:../../LUFA/Drivers/USB/../../Common/Endianness.h **** 				 *
 240:../../LUFA/Drivers/USB/../../Common/Endianness.h **** 				 *  \note This macro is designed for run-time conversion of data - for compile-time endianness
 241:../../LUFA/Drivers/USB/../../Common/Endianness.h **** 				 *        conversion, use \ref CPU_TO_BE32 instead.
 242:../../LUFA/Drivers/USB/../../Common/Endianness.h **** 				 *
 243:../../LUFA/Drivers/USB/../../Common/Endianness.h **** 				 *  \ingroup Group_EndianConversion
 244:../../LUFA/Drivers/USB/../../Common/Endianness.h **** 				 *
 245:../../LUFA/Drivers/USB/../../Common/Endianness.h **** 				 *  \param[in] x  Data to perform the endianness conversion on.
 246:../../LUFA/Drivers/USB/../../Common/Endianness.h **** 				 *
 247:../../LUFA/Drivers/USB/../../Common/Endianness.h **** 				 *  \return Endian corrected version of the input value.
 248:../../LUFA/Drivers/USB/../../Common/Endianness.h **** 				 */
 249:../../LUFA/Drivers/USB/../../Common/Endianness.h **** 				#define cpu_to_be32(x)           SwapEndian_32(x)
 250:../../LUFA/Drivers/USB/../../Common/Endianness.h **** 
 251:../../LUFA/Drivers/USB/../../Common/Endianness.h **** 				//@}
 252:../../LUFA/Drivers/USB/../../Common/Endianness.h **** 
 253:../../LUFA/Drivers/USB/../../Common/Endianness.h **** 				/** \name Compile-time endianness conversion */
 254:../../LUFA/Drivers/USB/../../Common/Endianness.h **** 				//@{
 255:../../LUFA/Drivers/USB/../../Common/Endianness.h **** 
 256:../../LUFA/Drivers/USB/../../Common/Endianness.h **** 				/** Performs a conversion between a Little Endian encoded 16-bit piece of data and the
 257:../../LUFA/Drivers/USB/../../Common/Endianness.h **** 				 *  Endianness of the currently selected CPU architecture.
 258:../../LUFA/Drivers/USB/../../Common/Endianness.h **** 				 *
 259:../../LUFA/Drivers/USB/../../Common/Endianness.h **** 				 *  On little endian architectures, this macro does nothing.
 260:../../LUFA/Drivers/USB/../../Common/Endianness.h **** 				 *
 261:../../LUFA/Drivers/USB/../../Common/Endianness.h **** 				 *  \note This macro is designed for compile-time conversion of data - for run time endianness
 262:../../LUFA/Drivers/USB/../../Common/Endianness.h **** 				 *        conversion, use \ref le16_to_cpu instead.
 263:../../LUFA/Drivers/USB/../../Common/Endianness.h **** 				 *
 264:../../LUFA/Drivers/USB/../../Common/Endianness.h **** 				 *  \ingroup Group_EndianConversion
 265:../../LUFA/Drivers/USB/../../Common/Endianness.h **** 				 *
 266:../../LUFA/Drivers/USB/../../Common/Endianness.h **** 				 *  \param[in] x  Data to perform the endianness conversion on.
 267:../../LUFA/Drivers/USB/../../Common/Endianness.h **** 				 *
 268:../../LUFA/Drivers/USB/../../Common/Endianness.h **** 				 *  \return Endian corrected version of the input value.
 269:../../LUFA/Drivers/USB/../../Common/Endianness.h **** 				 */
 270:../../LUFA/Drivers/USB/../../Common/Endianness.h **** 				#define LE16_TO_CPU(x)           (x)
 271:../../LUFA/Drivers/USB/../../Common/Endianness.h **** 
 272:../../LUFA/Drivers/USB/../../Common/Endianness.h **** 				/** Performs a conversion between a Little Endian encoded 32-bit piece of data and the
 273:../../LUFA/Drivers/USB/../../Common/Endianness.h **** 				 *  Endianness of the currently selected CPU architecture.
 274:../../LUFA/Drivers/USB/../../Common/Endianness.h **** 				 *
 275:../../LUFA/Drivers/USB/../../Common/Endianness.h **** 				 *  On little endian architectures, this macro does nothing.
 276:../../LUFA/Drivers/USB/../../Common/Endianness.h **** 				 *
 277:../../LUFA/Drivers/USB/../../Common/Endianness.h **** 				 *  \note This macro is designed for compile-time conversion of data - for run time endianness
 278:../../LUFA/Drivers/USB/../../Common/Endianness.h **** 				 *        conversion, use \ref le32_to_cpu instead.
 279:../../LUFA/Drivers/USB/../../Common/Endianness.h **** 				 *
 280:../../LUFA/Drivers/USB/../../Common/Endianness.h **** 				 *  \ingroup Group_EndianConversion
 281:../../LUFA/Drivers/USB/../../Common/Endianness.h **** 				 *
 282:../../LUFA/Drivers/USB/../../Common/Endianness.h **** 				 *  \param[in] x  Data to perform the endianness conversion on.
 283:../../LUFA/Drivers/USB/../../Common/Endianness.h **** 				 *
 284:../../LUFA/Drivers/USB/../../Common/Endianness.h **** 				 *  \return Endian corrected version of the input value.
 285:../../LUFA/Drivers/USB/../../Common/Endianness.h **** 				 */
 286:../../LUFA/Drivers/USB/../../Common/Endianness.h **** 				#define LE32_TO_CPU(x)           (x)
 287:../../LUFA/Drivers/USB/../../Common/Endianness.h **** 
 288:../../LUFA/Drivers/USB/../../Common/Endianness.h **** 				/** Performs a conversion between a Big Endian encoded 16-bit piece of data and the
 289:../../LUFA/Drivers/USB/../../Common/Endianness.h **** 				 *  Endianness of the currently selected CPU architecture.
 290:../../LUFA/Drivers/USB/../../Common/Endianness.h **** 				 *
 291:../../LUFA/Drivers/USB/../../Common/Endianness.h **** 				 *  On big endian architectures, this macro does nothing.
 292:../../LUFA/Drivers/USB/../../Common/Endianness.h **** 				 *
 293:../../LUFA/Drivers/USB/../../Common/Endianness.h **** 				 *  \note This macro is designed for compile-time conversion of data - for run-time endianness
 294:../../LUFA/Drivers/USB/../../Common/Endianness.h **** 				 *        conversion, use \ref be16_to_cpu instead.
 295:../../LUFA/Drivers/USB/../../Common/Endianness.h **** 				 *
 296:../../LUFA/Drivers/USB/../../Common/Endianness.h **** 				 *  \ingroup Group_EndianConversion
 297:../../LUFA/Drivers/USB/../../Common/Endianness.h **** 				 *
 298:../../LUFA/Drivers/USB/../../Common/Endianness.h **** 				 *  \param[in] x  Data to perform the endianness conversion on.
 299:../../LUFA/Drivers/USB/../../Common/Endianness.h **** 				 *
 300:../../LUFA/Drivers/USB/../../Common/Endianness.h **** 				 *  \return Endian corrected version of the input value.
 301:../../LUFA/Drivers/USB/../../Common/Endianness.h **** 				 */
 302:../../LUFA/Drivers/USB/../../Common/Endianness.h **** 				#define BE16_TO_CPU(x)           SWAPENDIAN_16(x)
 303:../../LUFA/Drivers/USB/../../Common/Endianness.h **** 
 304:../../LUFA/Drivers/USB/../../Common/Endianness.h **** 				/** Performs a conversion between a Big Endian encoded 32-bit piece of data and the
 305:../../LUFA/Drivers/USB/../../Common/Endianness.h **** 				 *  Endianness of the currently selected CPU architecture.
 306:../../LUFA/Drivers/USB/../../Common/Endianness.h **** 				 *
 307:../../LUFA/Drivers/USB/../../Common/Endianness.h **** 				 *  On big endian architectures, this macro does nothing.
 308:../../LUFA/Drivers/USB/../../Common/Endianness.h **** 				 *
 309:../../LUFA/Drivers/USB/../../Common/Endianness.h **** 				 *  \note This macro is designed for compile-time conversion of data - for run-time endianness
 310:../../LUFA/Drivers/USB/../../Common/Endianness.h **** 				 *        conversion, use \ref be32_to_cpu instead.
 311:../../LUFA/Drivers/USB/../../Common/Endianness.h **** 				 *
 312:../../LUFA/Drivers/USB/../../Common/Endianness.h **** 				 *  \ingroup Group_EndianConversion
 313:../../LUFA/Drivers/USB/../../Common/Endianness.h **** 				 *
 314:../../LUFA/Drivers/USB/../../Common/Endianness.h **** 				 *  \param[in] x  Data to perform the endianness conversion on.
 315:../../LUFA/Drivers/USB/../../Common/Endianness.h **** 				 *
 316:../../LUFA/Drivers/USB/../../Common/Endianness.h **** 				 *  \return Endian corrected version of the input value.
 317:../../LUFA/Drivers/USB/../../Common/Endianness.h **** 				 */
 318:../../LUFA/Drivers/USB/../../Common/Endianness.h **** 				#define BE32_TO_CPU(x)           SWAPENDIAN_32(x)
 319:../../LUFA/Drivers/USB/../../Common/Endianness.h **** 
 320:../../LUFA/Drivers/USB/../../Common/Endianness.h **** 				/** Performs a conversion on a natively encoded 16-bit piece of data to ensure that it
 321:../../LUFA/Drivers/USB/../../Common/Endianness.h **** 				 *  is in Little Endian format regardless of the currently selected CPU architecture.
 322:../../LUFA/Drivers/USB/../../Common/Endianness.h **** 				 *
 323:../../LUFA/Drivers/USB/../../Common/Endianness.h **** 				 *  On little endian architectures, this macro does nothing.
 324:../../LUFA/Drivers/USB/../../Common/Endianness.h **** 				 *
 325:../../LUFA/Drivers/USB/../../Common/Endianness.h **** 				 *  \note This macro is designed for compile-time conversion of data - for run-time endianness
 326:../../LUFA/Drivers/USB/../../Common/Endianness.h **** 				 *        conversion, use \ref cpu_to_le16 instead.
 327:../../LUFA/Drivers/USB/../../Common/Endianness.h **** 				 *
 328:../../LUFA/Drivers/USB/../../Common/Endianness.h **** 				 *  \ingroup Group_EndianConversion
 329:../../LUFA/Drivers/USB/../../Common/Endianness.h **** 				 *
 330:../../LUFA/Drivers/USB/../../Common/Endianness.h **** 				 *  \param[in] x  Data to perform the endianness conversion on.
 331:../../LUFA/Drivers/USB/../../Common/Endianness.h **** 				 *
 332:../../LUFA/Drivers/USB/../../Common/Endianness.h **** 				 *  \return Endian corrected version of the input value.
 333:../../LUFA/Drivers/USB/../../Common/Endianness.h **** 				 */
 334:../../LUFA/Drivers/USB/../../Common/Endianness.h **** 				#define CPU_TO_LE16(x)           (x)
 335:../../LUFA/Drivers/USB/../../Common/Endianness.h **** 
 336:../../LUFA/Drivers/USB/../../Common/Endianness.h **** 				/** Performs a conversion on a natively encoded 32-bit piece of data to ensure that it
 337:../../LUFA/Drivers/USB/../../Common/Endianness.h **** 				 *  is in Little Endian format regardless of the currently selected CPU architecture.
 338:../../LUFA/Drivers/USB/../../Common/Endianness.h **** 				 *
 339:../../LUFA/Drivers/USB/../../Common/Endianness.h **** 				 *  On little endian architectures, this macro does nothing.
 340:../../LUFA/Drivers/USB/../../Common/Endianness.h **** 				 *
 341:../../LUFA/Drivers/USB/../../Common/Endianness.h **** 				 *  \note This macro is designed for compile-time conversion of data - for run-time endianness
 342:../../LUFA/Drivers/USB/../../Common/Endianness.h **** 				 *        conversion, use \ref cpu_to_le32 instead.
 343:../../LUFA/Drivers/USB/../../Common/Endianness.h **** 				 *
 344:../../LUFA/Drivers/USB/../../Common/Endianness.h **** 				 *  \ingroup Group_EndianConversion
 345:../../LUFA/Drivers/USB/../../Common/Endianness.h **** 				 *
 346:../../LUFA/Drivers/USB/../../Common/Endianness.h **** 				 *  \param[in] x  Data to perform the endianness conversion on.
 347:../../LUFA/Drivers/USB/../../Common/Endianness.h **** 				 *
 348:../../LUFA/Drivers/USB/../../Common/Endianness.h **** 				 *  \return Endian corrected version of the input value.
 349:../../LUFA/Drivers/USB/../../Common/Endianness.h **** 				 */
 350:../../LUFA/Drivers/USB/../../Common/Endianness.h **** 				#define CPU_TO_LE32(x)           (x)
 351:../../LUFA/Drivers/USB/../../Common/Endianness.h **** 
 352:../../LUFA/Drivers/USB/../../Common/Endianness.h **** 				/** Performs a conversion on a natively encoded 16-bit piece of data to ensure that it
 353:../../LUFA/Drivers/USB/../../Common/Endianness.h **** 				 *  is in Big Endian format regardless of the currently selected CPU architecture.
 354:../../LUFA/Drivers/USB/../../Common/Endianness.h **** 				 *
 355:../../LUFA/Drivers/USB/../../Common/Endianness.h **** 				 *  On big endian architectures, this macro does nothing.
 356:../../LUFA/Drivers/USB/../../Common/Endianness.h **** 				 *
 357:../../LUFA/Drivers/USB/../../Common/Endianness.h **** 				 *  \note This macro is designed for compile-time conversion of data - for run-time endianness
 358:../../LUFA/Drivers/USB/../../Common/Endianness.h **** 				 *        conversion, use \ref cpu_to_be16 instead.
 359:../../LUFA/Drivers/USB/../../Common/Endianness.h **** 				 *
 360:../../LUFA/Drivers/USB/../../Common/Endianness.h **** 				 *  \ingroup Group_EndianConversion
 361:../../LUFA/Drivers/USB/../../Common/Endianness.h **** 				 *
 362:../../LUFA/Drivers/USB/../../Common/Endianness.h **** 				 *  \param[in] x  Data to perform the endianness conversion on.
 363:../../LUFA/Drivers/USB/../../Common/Endianness.h **** 				 *
 364:../../LUFA/Drivers/USB/../../Common/Endianness.h **** 				 *  \return Endian corrected version of the input value.
 365:../../LUFA/Drivers/USB/../../Common/Endianness.h **** 				 */
 366:../../LUFA/Drivers/USB/../../Common/Endianness.h **** 				#define CPU_TO_BE16(x)           SWAPENDIAN_16(x)
 367:../../LUFA/Drivers/USB/../../Common/Endianness.h **** 
 368:../../LUFA/Drivers/USB/../../Common/Endianness.h **** 				/** Performs a conversion on a natively encoded 32-bit piece of data to ensure that it
 369:../../LUFA/Drivers/USB/../../Common/Endianness.h **** 				 *  is in Big Endian format regardless of the currently selected CPU architecture.
 370:../../LUFA/Drivers/USB/../../Common/Endianness.h **** 				 *
 371:../../LUFA/Drivers/USB/../../Common/Endianness.h **** 				 *  On big endian architectures, this macro does nothing.
 372:../../LUFA/Drivers/USB/../../Common/Endianness.h **** 				 *
 373:../../LUFA/Drivers/USB/../../Common/Endianness.h **** 				 *  \note This macro is designed for compile-time conversion of data - for run-time endianness
 374:../../LUFA/Drivers/USB/../../Common/Endianness.h **** 				 *        conversion, use \ref cpu_to_be32 instead.
 375:../../LUFA/Drivers/USB/../../Common/Endianness.h **** 				 *
 376:../../LUFA/Drivers/USB/../../Common/Endianness.h **** 				 *  \ingroup Group_EndianConversion
 377:../../LUFA/Drivers/USB/../../Common/Endianness.h **** 				 *
 378:../../LUFA/Drivers/USB/../../Common/Endianness.h **** 				 *  \param[in] x  Data to perform the endianness conversion on.
 379:../../LUFA/Drivers/USB/../../Common/Endianness.h **** 				 *
 380:../../LUFA/Drivers/USB/../../Common/Endianness.h **** 				 *  \return Endian corrected version of the input value.
 381:../../LUFA/Drivers/USB/../../Common/Endianness.h **** 				 */
 382:../../LUFA/Drivers/USB/../../Common/Endianness.h **** 				#define CPU_TO_BE32(x)           SWAPENDIAN_32(x)
 383:../../LUFA/Drivers/USB/../../Common/Endianness.h **** 
 384:../../LUFA/Drivers/USB/../../Common/Endianness.h **** 				//! @}
 385:../../LUFA/Drivers/USB/../../Common/Endianness.h **** 			#endif
 386:../../LUFA/Drivers/USB/../../Common/Endianness.h **** 
 387:../../LUFA/Drivers/USB/../../Common/Endianness.h **** 		/* Inline Functions: */
 388:../../LUFA/Drivers/USB/../../Common/Endianness.h **** 			/** Function to reverse the byte ordering of the individual bytes in a 16 bit value.
 389:../../LUFA/Drivers/USB/../../Common/Endianness.h **** 			 *
 390:../../LUFA/Drivers/USB/../../Common/Endianness.h **** 			 *  \ingroup Group_ByteSwapping
 391:../../LUFA/Drivers/USB/../../Common/Endianness.h **** 			 *
 392:../../LUFA/Drivers/USB/../../Common/Endianness.h **** 			 *  \param[in] Word  Word of data whose bytes are to be swapped.
 393:../../LUFA/Drivers/USB/../../Common/Endianness.h **** 			 *
 394:../../LUFA/Drivers/USB/../../Common/Endianness.h **** 			 *  \return Input data with the individual bytes reversed.
 395:../../LUFA/Drivers/USB/../../Common/Endianness.h **** 			 */
 396:../../LUFA/Drivers/USB/../../Common/Endianness.h **** 			static inline uint16_t SwapEndian_16(const uint16_t Word) ATTR_WARN_UNUSED_RESULT ATTR_CONST;
 397:../../LUFA/Drivers/USB/../../Common/Endianness.h **** 			static inline uint16_t SwapEndian_16(const uint16_t Word)
 398:../../LUFA/Drivers/USB/../../Common/Endianness.h **** 			{
 399:../../LUFA/Drivers/USB/../../Common/Endianness.h **** 				if (GCC_IS_COMPILE_CONST(Word))
 400:../../LUFA/Drivers/USB/../../Common/Endianness.h **** 				  return SWAPENDIAN_16(Word);
 401:../../LUFA/Drivers/USB/../../Common/Endianness.h **** 			
 402:../../LUFA/Drivers/USB/../../Common/Endianness.h **** 				uint8_t Temp;
 403:../../LUFA/Drivers/USB/../../Common/Endianness.h **** 
 404:../../LUFA/Drivers/USB/../../Common/Endianness.h **** 				union
 405:../../LUFA/Drivers/USB/../../Common/Endianness.h **** 				{
 406:../../LUFA/Drivers/USB/../../Common/Endianness.h **** 					uint16_t Word;
 407:../../LUFA/Drivers/USB/../../Common/Endianness.h **** 					uint8_t  Bytes[2];
 408:../../LUFA/Drivers/USB/../../Common/Endianness.h **** 				} Data;
 409:../../LUFA/Drivers/USB/../../Common/Endianness.h **** 
 410:../../LUFA/Drivers/USB/../../Common/Endianness.h **** 				Data.Word = Word;
 411:../../LUFA/Drivers/USB/../../Common/Endianness.h **** 
 412:../../LUFA/Drivers/USB/../../Common/Endianness.h **** 				Temp = Data.Bytes[0];
 413:../../LUFA/Drivers/USB/../../Common/Endianness.h **** 				Data.Bytes[0] = Data.Bytes[1];
 414:../../LUFA/Drivers/USB/../../Common/Endianness.h **** 				Data.Bytes[1] = Temp;
 415:../../LUFA/Drivers/USB/../../Common/Endianness.h **** 
 416:../../LUFA/Drivers/USB/../../Common/Endianness.h **** 				return Data.Word;
 417:../../LUFA/Drivers/USB/../../Common/Endianness.h **** 			}
 418:../../LUFA/Drivers/USB/../../Common/Endianness.h **** 
 419:../../LUFA/Drivers/USB/../../Common/Endianness.h **** 			/** Function to reverse the byte ordering of the individual bytes in a 32 bit value.
 420:../../LUFA/Drivers/USB/../../Common/Endianness.h **** 			 *
 421:../../LUFA/Drivers/USB/../../Common/Endianness.h **** 			 *  \ingroup Group_ByteSwapping
 422:../../LUFA/Drivers/USB/../../Common/Endianness.h **** 			 *
 423:../../LUFA/Drivers/USB/../../Common/Endianness.h **** 			 *  \param[in] DWord  Double word of data whose bytes are to be swapped.
 424:../../LUFA/Drivers/USB/../../Common/Endianness.h **** 			 *
 425:../../LUFA/Drivers/USB/../../Common/Endianness.h **** 			 *  \return Input data with the individual bytes reversed.
 426:../../LUFA/Drivers/USB/../../Common/Endianness.h **** 			 */
 427:../../LUFA/Drivers/USB/../../Common/Endianness.h **** 			static inline uint32_t SwapEndian_32(const uint32_t DWord) ATTR_WARN_UNUSED_RESULT ATTR_CONST;
 428:../../LUFA/Drivers/USB/../../Common/Endianness.h **** 			static inline uint32_t SwapEndian_32(const uint32_t DWord)
 429:../../LUFA/Drivers/USB/../../Common/Endianness.h **** 			{
 430:../../LUFA/Drivers/USB/../../Common/Endianness.h **** 				if (GCC_IS_COMPILE_CONST(DWord))
 431:../../LUFA/Drivers/USB/../../Common/Endianness.h **** 				  return SWAPENDIAN_32(DWord);
 432:../../LUFA/Drivers/USB/../../Common/Endianness.h **** 
 433:../../LUFA/Drivers/USB/../../Common/Endianness.h **** 				uint8_t Temp;
 434:../../LUFA/Drivers/USB/../../Common/Endianness.h **** 
 435:../../LUFA/Drivers/USB/../../Common/Endianness.h **** 				union
 436:../../LUFA/Drivers/USB/../../Common/Endianness.h **** 				{
 437:../../LUFA/Drivers/USB/../../Common/Endianness.h **** 					uint32_t DWord;
 438:../../LUFA/Drivers/USB/../../Common/Endianness.h **** 					uint8_t  Bytes[4];
 439:../../LUFA/Drivers/USB/../../Common/Endianness.h **** 				} Data;
 440:../../LUFA/Drivers/USB/../../Common/Endianness.h **** 
 441:../../LUFA/Drivers/USB/../../Common/Endianness.h **** 				Data.DWord = DWord;
  45               		.loc 2 441 0
  46 000c 4B8D      		ldd r20,Y+27
  47 000e 5C8D      		ldd r21,Y+28
  48 0010 6D8D      		ldd r22,Y+29
  49 0012 7E8D      		ldd r23,Y+30
  50               	.LVL2:
 442:../../LUFA/Drivers/USB/../../Common/Endianness.h **** 
 443:../../LUFA/Drivers/USB/../../Common/Endianness.h **** 				Temp = Data.Bytes[0];
  51               		.loc 2 443 0
  52 0014 842F      		mov r24,r20
  53               	.LVL3:
 444:../../LUFA/Drivers/USB/../../Common/Endianness.h **** 				Data.Bytes[0] = Data.Bytes[3];
  54               		.loc 2 444 0
  55 0016 472F      		mov r20,r23
  56               	.LVL4:
 445:../../LUFA/Drivers/USB/../../Common/Endianness.h **** 				Data.Bytes[3] = Temp;
  57               		.loc 2 445 0
  58 0018 782F      		mov r23,r24
  59               	.LVL5:
 446:../../LUFA/Drivers/USB/../../Common/Endianness.h **** 
 447:../../LUFA/Drivers/USB/../../Common/Endianness.h **** 				Temp = Data.Bytes[1];
  60               		.loc 2 447 0
  61 001a 852F      		mov r24,r21
  62               	.LVL6:
 448:../../LUFA/Drivers/USB/../../Common/Endianness.h **** 				Data.Bytes[1] = Data.Bytes[2];
  63               		.loc 2 448 0
  64 001c 562F      		mov r21,r22
 449:../../LUFA/Drivers/USB/../../Common/Endianness.h **** 				Data.Bytes[2] = Temp;
  65               		.loc 2 449 0
  66 001e 682F      		mov r22,r24
  67               	.LVL7:
  68               	.LBE25:
  69               	.LBE24:
  70               	.LBB26:
  71               	.LBB27:
  72               	.LBB28:
  73               	.LBB29:
 410:../../LUFA/Drivers/USB/../../Common/Endianness.h **** 
  74               		.loc 2 410 0
  75 0020 08A1      		ldd r16,Y+32
  76 0022 19A1      		ldd r17,Y+33
  77               	.LVL8:
 412:../../LUFA/Drivers/USB/../../Common/Endianness.h **** 				Data.Bytes[0] = Data.Bytes[1];
  78               		.loc 2 412 0
  79 0024 802F      		mov r24,r16
  80               	.LVL9:
 413:../../LUFA/Drivers/USB/../../Common/Endianness.h **** 				Data.Bytes[1] = Temp;
  81               		.loc 2 413 0
  82 0026 012F      		mov r16,r17
  83               	.LVL10:
 414:../../LUFA/Drivers/USB/../../Common/Endianness.h **** 
  84               		.loc 2 414 0
  85 0028 182F      		mov r17,r24
  86               	.LVL11:
  87               	.LBE29:
  88               	.LBE28:
  89               	.LBE27:
  90               	.LBE26:
 279:Lib/SCSI.c    **** 	uint32_t BlockAddress;
 280:Lib/SCSI.c    **** 	uint16_t TotalBlocks;
 281:Lib/SCSI.c    **** 
 282:Lib/SCSI.c    **** 	/* Check if the disk is write protected or not */
 283:Lib/SCSI.c    **** 	if ((IsDataRead == DATA_WRITE) && DISK_READ_ONLY)
 284:Lib/SCSI.c    **** 	{
 285:Lib/SCSI.c    **** 		/* Block address is invalid, update SENSE key and return command fail */
 286:Lib/SCSI.c    **** 		SCSI_SET_SENSE(SCSI_SENSE_KEY_DATA_PROTECT,
 287:Lib/SCSI.c    **** 		               SCSI_ASENSE_WRITE_PROTECTED,
 288:Lib/SCSI.c    **** 		               SCSI_ASENSEQ_NO_QUALIFIER);
 289:Lib/SCSI.c    **** 
 290:Lib/SCSI.c    **** 		return false;		
 291:Lib/SCSI.c    **** 	}
 292:Lib/SCSI.c    **** 
 293:Lib/SCSI.c    **** 	/* Load in the 32-bit block address (SCSI uses big-endian, so have to reverse the byte order) */
 294:Lib/SCSI.c    **** 	BlockAddress = SwapEndian_32(*(uint32_t*)&MSInterfaceInfo->State.CommandBlock.SCSICommandData[2]);
 295:Lib/SCSI.c    **** 
 296:Lib/SCSI.c    **** 	/* Load in the 16-bit total blocks (SCSI uses big-endian, so have to reverse the byte order) */
 297:Lib/SCSI.c    **** 	TotalBlocks  = SwapEndian_16(*(uint16_t*)&MSInterfaceInfo->State.CommandBlock.SCSICommandData[7]);
 298:Lib/SCSI.c    **** 
 299:Lib/SCSI.c    **** 	/* Check if the block address is outside the maximum allowable value for the LUN */
 300:Lib/SCSI.c    **** 	if (BlockAddress >= VIRTUAL_MEMORY_BLOCKS)
  91               		.loc 1 300 0
  92 002a 4115      		cp r20,__zero_reg__
  93 002c 80E8      		ldi r24,-128
  94 002e 5807      		cpc r21,r24
  95 0030 6105      		cpc r22,__zero_reg__
  96 0032 7105      		cpc r23,__zero_reg__
  97 0034 00F0      		brlo .L2
  98               	.LVL12:
 301:Lib/SCSI.c    **** 	{
 302:Lib/SCSI.c    **** 		/* Block address is invalid, update SENSE key and return command fail */
 303:Lib/SCSI.c    **** 		SCSI_SET_SENSE(SCSI_SENSE_KEY_ILLEGAL_REQUEST,
  99               		.loc 1 303 0
 100 0036 8091 0000 		lds r24,SenseData+2
 101 003a 807F      		andi r24,lo8(-16)
 102 003c 8560      		ori r24,lo8(5)
 103 003e 8093 0000 		sts SenseData+2,r24
 104 0042 81E2      		ldi r24,lo8(33)
 105 0044 8093 0000 		sts SenseData+12,r24
 106 0048 1092 0000 		sts SenseData+13,__zero_reg__
 304:Lib/SCSI.c    **** 		               SCSI_ASENSE_LOGICAL_BLOCK_ADDRESS_OUT_OF_RANGE,
 305:Lib/SCSI.c    **** 		               SCSI_ASENSEQ_NO_QUALIFIER);
 306:Lib/SCSI.c    **** 
 307:Lib/SCSI.c    **** 		return false;
 107               		.loc 1 307 0
 108 004c 80E0      		ldi r24,0
 109 004e 00C0      		rjmp .L3
 110               	.L2:
 111               	.LVL13:
 308:Lib/SCSI.c    **** 	}
 309:Lib/SCSI.c    **** 	
 310:Lib/SCSI.c    **** 	/* Determine if the packet is a READ (10) or WRITE (10) command, call appropriate function */
 311:Lib/SCSI.c    **** 	if (IsDataRead == DATA_READ)
 312:Lib/SCSI.c    **** 	  DataflashManager_ReadBlocks(MSInterfaceInfo, BlockAddress, TotalBlocks);
 112               		.loc 1 312 0
 113 0050 9801      		movw r18,r16
 311:Lib/SCSI.c    **** 	  DataflashManager_ReadBlocks(MSInterfaceInfo, BlockAddress, TotalBlocks);
 114               		.loc 1 311 0
 115 0052 9923      		tst r25
 116 0054 01F0      		breq .L4
 117               		.loc 1 312 0
 118 0056 CE01      		movw r24,r28
 119 0058 0E94 0000 		call DataflashManager_ReadBlocks
 120               	.LVL14:
 121 005c 00C0      		rjmp .L5
 122               	.LVL15:
 123               	.L4:
 313:Lib/SCSI.c    **** 	else
 314:Lib/SCSI.c    **** 	  DataflashManager_WriteBlocks(MSInterfaceInfo, BlockAddress, TotalBlocks);
 124               		.loc 1 314 0
 125 005e CE01      		movw r24,r28
 126 0060 0E94 0000 		call DataflashManager_WriteBlocks
 127               	.LVL16:
 128               	.L5:
 315:Lib/SCSI.c    **** 
 316:Lib/SCSI.c    **** 	/* Update the bytes transferred counter and succeed the command */
 317:Lib/SCSI.c    **** 	MSInterfaceInfo->State.CommandBlock.DataTransferLength -= ((uint32_t)TotalBlocks * VIRTUAL_MEMORY_
 129               		.loc 1 317 0
 130 0064 A801      		movw r20,r16
 131 0066 60E0      		ldi r22,0
 132 0068 70E0      		ldi r23,0
 133 006a 89E0      		ldi r24,9
 134               		1:
 135 006c 440F      		lsl r20
 136 006e 551F      		rol r21
 137 0070 661F      		rol r22
 138 0072 771F      		rol r23
 139 0074 8A95      		dec r24
 140 0076 01F4      		brne 1b
 141 0078 8A89      		ldd r24,Y+18
 142 007a 9B89      		ldd r25,Y+19
 143 007c AC89      		ldd r26,Y+20
 144 007e BD89      		ldd r27,Y+21
 145 0080 841B      		sub r24,r20
 146 0082 950B      		sbc r25,r21
 147 0084 A60B      		sbc r26,r22
 148 0086 B70B      		sbc r27,r23
 149 0088 8A8B      		std Y+18,r24
 150 008a 9B8B      		std Y+19,r25
 151 008c AC8B      		std Y+20,r26
 152 008e BD8B      		std Y+21,r27
 318:Lib/SCSI.c    **** 
 319:Lib/SCSI.c    **** 	return true;
 153               		.loc 1 319 0
 154 0090 81E0      		ldi r24,lo8(1)
 155               	.LVL17:
 156               	.L3:
 157               	/* epilogue start */
 320:Lib/SCSI.c    **** }
 158               		.loc 1 320 0
 159 0092 DF91      		pop r29
 160 0094 CF91      		pop r28
 161               	.LVL18:
 162 0096 1F91      		pop r17
 163 0098 0F91      		pop r16
 164               	.LVL19:
 165 009a 0895      		ret
 166               		.cfi_endproc
 167               	.LFE210:
 169               		.section	.text.SCSI_DecodeSCSICommand,"ax",@progbits
 170               	.global	SCSI_DecodeSCSICommand
 172               	SCSI_DecodeSCSICommand:
 173               	.LFB205:
  92:Lib/SCSI.c    **** 	bool CommandSuccess = false;
 174               		.loc 1 92 0
 175               		.cfi_startproc
 176               	.LVL20:
 177 0000 CF92      		push r12
 178               	.LCFI4:
 179               		.cfi_def_cfa_offset 3
 180               		.cfi_offset 12, -2
 181 0002 DF92      		push r13
 182               	.LCFI5:
 183               		.cfi_def_cfa_offset 4
 184               		.cfi_offset 13, -3
 185 0004 EF92      		push r14
 186               	.LCFI6:
 187               		.cfi_def_cfa_offset 5
 188               		.cfi_offset 14, -4
 189 0006 FF92      		push r15
 190               	.LCFI7:
 191               		.cfi_def_cfa_offset 6
 192               		.cfi_offset 15, -5
 193 0008 0F93      		push r16
 194               	.LCFI8:
 195               		.cfi_def_cfa_offset 7
 196               		.cfi_offset 16, -6
 197 000a 1F93      		push r17
 198               	.LCFI9:
 199               		.cfi_def_cfa_offset 8
 200               		.cfi_offset 17, -7
 201 000c CF93      		push r28
 202               	.LCFI10:
 203               		.cfi_def_cfa_offset 9
 204               		.cfi_offset 28, -8
 205 000e DF93      		push r29
 206               	.LCFI11:
 207               		.cfi_def_cfa_offset 10
 208               		.cfi_offset 29, -9
 209 0010 CDB7      		in r28,__SP_L__
 210 0012 DEB7      		in r29,__SP_H__
 211               	.LCFI12:
 212               		.cfi_def_cfa_register 28
 213 0014 2897      		sbiw r28,8
 214               	.LCFI13:
 215               		.cfi_def_cfa_offset 18
 216 0016 0FB6      		in __tmp_reg__,__SREG__
 217 0018 F894      		cli
 218 001a DEBF      		out __SP_H__,r29
 219 001c 0FBE      		out __SREG__,__tmp_reg__
 220 001e CDBF      		out __SP_L__,r28
 221               	/* prologue: function */
 222               	/* frame size = 8 */
 223               	/* stack size = 16 */
 224               	.L__stack_usage = 16
 225 0020 8C01      		movw r16,r24
 226               	.LVL21:
  96:Lib/SCSI.c    **** 	{
 227               		.loc 1 96 0
 228 0022 FC01      		movw r30,r24
 229 0024 818D      		ldd r24,Z+25
 230               	.LVL22:
 231 0026 8D31      		cpi r24,lo8(29)
 232 0028 01F4      		brne .+2
 233 002a 00C0      		rjmp .L9
 234 002c 00F4      		brsh .L10
 235 002e 8330      		cpi r24,lo8(3)
 236 0030 01F4      		brne .+2
 237 0032 00C0      		rjmp .L11
 238 0034 00F4      		brsh .L12
 239 0036 8823      		tst r24
 240 0038 01F4      		brne .+2
 241 003a 00C0      		rjmp .L13
 242 003c 00C0      		rjmp .L8
 243               	.L12:
 244 003e 8231      		cpi r24,lo8(18)
 245 0040 01F4      		brne .+2
 246 0042 00C0      		rjmp .L14
 247 0044 8A31      		cpi r24,lo8(26)
 248 0046 01F0      		breq .+2
 249 0048 00C0      		rjmp .L8
 250               	.LVL23:
 251               	.LBB60:
 252               	.LBB61:
 253               	.LBB62:
 254               	.LBB63:
 255               		.file 3 "../../LUFA/Drivers/USB/Core/AVR8/../AVR8/Endpoint_AVR8.h"
   1:../../LUFA/Drivers/USB/Core/AVR8/../AVR8/Endpoint_AVR8.h **** /*
   2:../../LUFA/Drivers/USB/Core/AVR8/../AVR8/Endpoint_AVR8.h ****              LUFA Library
   3:../../LUFA/Drivers/USB/Core/AVR8/../AVR8/Endpoint_AVR8.h ****      Copyright (C) Dean Camera, 2011.
   4:../../LUFA/Drivers/USB/Core/AVR8/../AVR8/Endpoint_AVR8.h **** 
   5:../../LUFA/Drivers/USB/Core/AVR8/../AVR8/Endpoint_AVR8.h ****   dean [at] fourwalledcubicle [dot] com
   6:../../LUFA/Drivers/USB/Core/AVR8/../AVR8/Endpoint_AVR8.h ****            www.lufa-lib.org
   7:../../LUFA/Drivers/USB/Core/AVR8/../AVR8/Endpoint_AVR8.h **** */
   8:../../LUFA/Drivers/USB/Core/AVR8/../AVR8/Endpoint_AVR8.h **** 
   9:../../LUFA/Drivers/USB/Core/AVR8/../AVR8/Endpoint_AVR8.h **** /*
  10:../../LUFA/Drivers/USB/Core/AVR8/../AVR8/Endpoint_AVR8.h ****   Copyright 2011  Dean Camera (dean [at] fourwalledcubicle [dot] com)
  11:../../LUFA/Drivers/USB/Core/AVR8/../AVR8/Endpoint_AVR8.h **** 
  12:../../LUFA/Drivers/USB/Core/AVR8/../AVR8/Endpoint_AVR8.h ****   Permission to use, copy, modify, distribute, and sell this
  13:../../LUFA/Drivers/USB/Core/AVR8/../AVR8/Endpoint_AVR8.h ****   software and its documentation for any purpose is hereby granted
  14:../../LUFA/Drivers/USB/Core/AVR8/../AVR8/Endpoint_AVR8.h ****   without fee, provided that the above copyright notice appear in
  15:../../LUFA/Drivers/USB/Core/AVR8/../AVR8/Endpoint_AVR8.h ****   all copies and that both that the copyright notice and this
  16:../../LUFA/Drivers/USB/Core/AVR8/../AVR8/Endpoint_AVR8.h ****   permission notice and warranty disclaimer appear in supporting
  17:../../LUFA/Drivers/USB/Core/AVR8/../AVR8/Endpoint_AVR8.h ****   documentation, and that the name of the author not be used in
  18:../../LUFA/Drivers/USB/Core/AVR8/../AVR8/Endpoint_AVR8.h ****   advertising or publicity pertaining to distribution of the
  19:../../LUFA/Drivers/USB/Core/AVR8/../AVR8/Endpoint_AVR8.h ****   software without specific, written prior permission.
  20:../../LUFA/Drivers/USB/Core/AVR8/../AVR8/Endpoint_AVR8.h **** 
  21:../../LUFA/Drivers/USB/Core/AVR8/../AVR8/Endpoint_AVR8.h ****   The author disclaim all warranties with regard to this
  22:../../LUFA/Drivers/USB/Core/AVR8/../AVR8/Endpoint_AVR8.h ****   software, including all implied warranties of merchantability
  23:../../LUFA/Drivers/USB/Core/AVR8/../AVR8/Endpoint_AVR8.h ****   and fitness.  In no event shall the author be liable for any
  24:../../LUFA/Drivers/USB/Core/AVR8/../AVR8/Endpoint_AVR8.h ****   special, indirect or consequential damages or any damages
  25:../../LUFA/Drivers/USB/Core/AVR8/../AVR8/Endpoint_AVR8.h ****   whatsoever resulting from loss of use, data or profits, whether
  26:../../LUFA/Drivers/USB/Core/AVR8/../AVR8/Endpoint_AVR8.h ****   in an action of contract, negligence or other tortious action,
  27:../../LUFA/Drivers/USB/Core/AVR8/../AVR8/Endpoint_AVR8.h ****   arising out of or in connection with the use or performance of
  28:../../LUFA/Drivers/USB/Core/AVR8/../AVR8/Endpoint_AVR8.h ****   this software.
  29:../../LUFA/Drivers/USB/Core/AVR8/../AVR8/Endpoint_AVR8.h **** */
  30:../../LUFA/Drivers/USB/Core/AVR8/../AVR8/Endpoint_AVR8.h **** 
  31:../../LUFA/Drivers/USB/Core/AVR8/../AVR8/Endpoint_AVR8.h **** /** \file
  32:../../LUFA/Drivers/USB/Core/AVR8/../AVR8/Endpoint_AVR8.h ****  *  \brief USB Endpoint definitions for the AVR8 microcontrollers.
  33:../../LUFA/Drivers/USB/Core/AVR8/../AVR8/Endpoint_AVR8.h ****  *  \copydetails Group_EndpointManagement_AVR8
  34:../../LUFA/Drivers/USB/Core/AVR8/../AVR8/Endpoint_AVR8.h ****  *
  35:../../LUFA/Drivers/USB/Core/AVR8/../AVR8/Endpoint_AVR8.h ****  *  \note This file should not be included directly. It is automatically included as needed by the 
  36:../../LUFA/Drivers/USB/Core/AVR8/../AVR8/Endpoint_AVR8.h ****  *        dispatch header located in LUFA/Drivers/USB/USB.h.
  37:../../LUFA/Drivers/USB/Core/AVR8/../AVR8/Endpoint_AVR8.h ****  */
  38:../../LUFA/Drivers/USB/Core/AVR8/../AVR8/Endpoint_AVR8.h **** 
  39:../../LUFA/Drivers/USB/Core/AVR8/../AVR8/Endpoint_AVR8.h **** /** \ingroup Group_EndpointRW
  40:../../LUFA/Drivers/USB/Core/AVR8/../AVR8/Endpoint_AVR8.h ****  *  \defgroup Group_EndpointRW_AVR8 Endpoint Data Reading and Writing (AVR8)
  41:../../LUFA/Drivers/USB/Core/AVR8/../AVR8/Endpoint_AVR8.h ****  *  \brief Endpoint data read/write definitions for the Atmel AVR8 architecture.
  42:../../LUFA/Drivers/USB/Core/AVR8/../AVR8/Endpoint_AVR8.h ****  *
  43:../../LUFA/Drivers/USB/Core/AVR8/../AVR8/Endpoint_AVR8.h ****  *  Functions, macros, variables, enums and types related to data reading and writing from and to e
  44:../../LUFA/Drivers/USB/Core/AVR8/../AVR8/Endpoint_AVR8.h ****  */
  45:../../LUFA/Drivers/USB/Core/AVR8/../AVR8/Endpoint_AVR8.h **** 
  46:../../LUFA/Drivers/USB/Core/AVR8/../AVR8/Endpoint_AVR8.h **** /** \ingroup Group_EndpointPrimitiveRW
  47:../../LUFA/Drivers/USB/Core/AVR8/../AVR8/Endpoint_AVR8.h ****  *  \defgroup Group_EndpointPrimitiveRW_AVR8 Read/Write of Primitive Data Types (AVR8)
  48:../../LUFA/Drivers/USB/Core/AVR8/../AVR8/Endpoint_AVR8.h ****  *  \brief Endpoint primitive read/write definitions for the Atmel AVR8 architecture.
  49:../../LUFA/Drivers/USB/Core/AVR8/../AVR8/Endpoint_AVR8.h ****  *
  50:../../LUFA/Drivers/USB/Core/AVR8/../AVR8/Endpoint_AVR8.h ****  *  Functions, macros, variables, enums and types related to data reading and writing of primitive 
  51:../../LUFA/Drivers/USB/Core/AVR8/../AVR8/Endpoint_AVR8.h ****  *  from and to endpoints.
  52:../../LUFA/Drivers/USB/Core/AVR8/../AVR8/Endpoint_AVR8.h ****  */
  53:../../LUFA/Drivers/USB/Core/AVR8/../AVR8/Endpoint_AVR8.h **** 
  54:../../LUFA/Drivers/USB/Core/AVR8/../AVR8/Endpoint_AVR8.h **** /** \ingroup Group_EndpointPacketManagement
  55:../../LUFA/Drivers/USB/Core/AVR8/../AVR8/Endpoint_AVR8.h ****  *  \defgroup Group_EndpointPacketManagement_AVR8 Endpoint Packet Management (AVR8)
  56:../../LUFA/Drivers/USB/Core/AVR8/../AVR8/Endpoint_AVR8.h ****  *  \brief Endpoint packet management definitions for the Atmel AVR8 architecture.
  57:../../LUFA/Drivers/USB/Core/AVR8/../AVR8/Endpoint_AVR8.h ****  *
  58:../../LUFA/Drivers/USB/Core/AVR8/../AVR8/Endpoint_AVR8.h ****  *  Functions, macros, variables, enums and types related to packet management of endpoints.
  59:../../LUFA/Drivers/USB/Core/AVR8/../AVR8/Endpoint_AVR8.h ****  */
  60:../../LUFA/Drivers/USB/Core/AVR8/../AVR8/Endpoint_AVR8.h **** 
  61:../../LUFA/Drivers/USB/Core/AVR8/../AVR8/Endpoint_AVR8.h **** /** \ingroup Group_EndpointManagement
  62:../../LUFA/Drivers/USB/Core/AVR8/../AVR8/Endpoint_AVR8.h ****  *  \defgroup Group_EndpointManagement_AVR8 Endpoint Management (AVR8)
  63:../../LUFA/Drivers/USB/Core/AVR8/../AVR8/Endpoint_AVR8.h ****  *  \brief Endpoint management definitions for the Atmel AVR8 architecture.
  64:../../LUFA/Drivers/USB/Core/AVR8/../AVR8/Endpoint_AVR8.h ****  *
  65:../../LUFA/Drivers/USB/Core/AVR8/../AVR8/Endpoint_AVR8.h ****  *  Functions, macros and enums related to endpoint management when in USB Device mode. This
  66:../../LUFA/Drivers/USB/Core/AVR8/../AVR8/Endpoint_AVR8.h ****  *  module contains the endpoint management macros, as well as endpoint interrupt and data
  67:../../LUFA/Drivers/USB/Core/AVR8/../AVR8/Endpoint_AVR8.h ****  *  send/receive functions for various data types.
  68:../../LUFA/Drivers/USB/Core/AVR8/../AVR8/Endpoint_AVR8.h ****  *
  69:../../LUFA/Drivers/USB/Core/AVR8/../AVR8/Endpoint_AVR8.h ****  *  @{
  70:../../LUFA/Drivers/USB/Core/AVR8/../AVR8/Endpoint_AVR8.h ****  */
  71:../../LUFA/Drivers/USB/Core/AVR8/../AVR8/Endpoint_AVR8.h **** 
  72:../../LUFA/Drivers/USB/Core/AVR8/../AVR8/Endpoint_AVR8.h **** #ifndef __ENDPOINT_AVR8_H__
  73:../../LUFA/Drivers/USB/Core/AVR8/../AVR8/Endpoint_AVR8.h **** #define __ENDPOINT_AVR8_H__
  74:../../LUFA/Drivers/USB/Core/AVR8/../AVR8/Endpoint_AVR8.h **** 
  75:../../LUFA/Drivers/USB/Core/AVR8/../AVR8/Endpoint_AVR8.h **** 	/* Includes: */
  76:../../LUFA/Drivers/USB/Core/AVR8/../AVR8/Endpoint_AVR8.h **** 		#include "../../../../Common/Common.h"
  77:../../LUFA/Drivers/USB/Core/AVR8/../AVR8/Endpoint_AVR8.h **** 		#include "../USBTask.h"
  78:../../LUFA/Drivers/USB/Core/AVR8/../AVR8/Endpoint_AVR8.h **** 		#include "../USBInterrupt.h"
  79:../../LUFA/Drivers/USB/Core/AVR8/../AVR8/Endpoint_AVR8.h **** 
  80:../../LUFA/Drivers/USB/Core/AVR8/../AVR8/Endpoint_AVR8.h **** 	/* Enable C linkage for C++ Compilers: */
  81:../../LUFA/Drivers/USB/Core/AVR8/../AVR8/Endpoint_AVR8.h **** 		#if defined(__cplusplus)
  82:../../LUFA/Drivers/USB/Core/AVR8/../AVR8/Endpoint_AVR8.h **** 			extern "C" {
  83:../../LUFA/Drivers/USB/Core/AVR8/../AVR8/Endpoint_AVR8.h **** 		#endif
  84:../../LUFA/Drivers/USB/Core/AVR8/../AVR8/Endpoint_AVR8.h **** 
  85:../../LUFA/Drivers/USB/Core/AVR8/../AVR8/Endpoint_AVR8.h **** 	/* Preprocessor Checks: */
  86:../../LUFA/Drivers/USB/Core/AVR8/../AVR8/Endpoint_AVR8.h **** 		#if !defined(__INCLUDE_FROM_USB_DRIVER)
  87:../../LUFA/Drivers/USB/Core/AVR8/../AVR8/Endpoint_AVR8.h **** 			#error Do not include this file directly. Include LUFA/Drivers/USB/USB.h instead.
  88:../../LUFA/Drivers/USB/Core/AVR8/../AVR8/Endpoint_AVR8.h **** 		#endif
  89:../../LUFA/Drivers/USB/Core/AVR8/../AVR8/Endpoint_AVR8.h **** 
  90:../../LUFA/Drivers/USB/Core/AVR8/../AVR8/Endpoint_AVR8.h **** 	/* Private Interface - For use in library only: */
  91:../../LUFA/Drivers/USB/Core/AVR8/../AVR8/Endpoint_AVR8.h **** 	#if !defined(__DOXYGEN__)
  92:../../LUFA/Drivers/USB/Core/AVR8/../AVR8/Endpoint_AVR8.h **** 		/* Macros: */
  93:../../LUFA/Drivers/USB/Core/AVR8/../AVR8/Endpoint_AVR8.h **** 			#define _ENDPOINT_GET_MAXSIZE(EPIndex)         _ENDPOINT_GET_MAXSIZE2(ENDPOINT_DETAILS_EP ## EPI
  94:../../LUFA/Drivers/USB/Core/AVR8/../AVR8/Endpoint_AVR8.h **** 			#define _ENDPOINT_GET_MAXSIZE2(EPDetails)      _ENDPOINT_GET_MAXSIZE3(EPDetails)
  95:../../LUFA/Drivers/USB/Core/AVR8/../AVR8/Endpoint_AVR8.h **** 			#define _ENDPOINT_GET_MAXSIZE3(MaxSize, Banks) (MaxSize)
  96:../../LUFA/Drivers/USB/Core/AVR8/../AVR8/Endpoint_AVR8.h **** 
  97:../../LUFA/Drivers/USB/Core/AVR8/../AVR8/Endpoint_AVR8.h **** 			#define _ENDPOINT_GET_BANKS(EPIndex)           _ENDPOINT_GET_BANKS2(ENDPOINT_DETAILS_EP ## EPInd
  98:../../LUFA/Drivers/USB/Core/AVR8/../AVR8/Endpoint_AVR8.h **** 			#define _ENDPOINT_GET_BANKS2(EPDetails)        _ENDPOINT_GET_BANKS3(EPDetails)
  99:../../LUFA/Drivers/USB/Core/AVR8/../AVR8/Endpoint_AVR8.h **** 			#define _ENDPOINT_GET_BANKS3(MaxSize, Banks)   (Banks)
 100:../../LUFA/Drivers/USB/Core/AVR8/../AVR8/Endpoint_AVR8.h **** 
 101:../../LUFA/Drivers/USB/Core/AVR8/../AVR8/Endpoint_AVR8.h **** 			#if defined(USB_SERIES_4_AVR) || defined(USB_SERIES_6_AVR) || defined(USB_SERIES_7_AVR)
 102:../../LUFA/Drivers/USB/Core/AVR8/../AVR8/Endpoint_AVR8.h **** 				#define ENDPOINT_DETAILS_MAXEP             7
 103:../../LUFA/Drivers/USB/Core/AVR8/../AVR8/Endpoint_AVR8.h **** 
 104:../../LUFA/Drivers/USB/Core/AVR8/../AVR8/Endpoint_AVR8.h **** 				#define ENDPOINT_DETAILS_EP0               64,  1
 105:../../LUFA/Drivers/USB/Core/AVR8/../AVR8/Endpoint_AVR8.h **** 				#define ENDPOINT_DETAILS_EP1               256, 2
 106:../../LUFA/Drivers/USB/Core/AVR8/../AVR8/Endpoint_AVR8.h **** 				#define ENDPOINT_DETAILS_EP2               64,  2
 107:../../LUFA/Drivers/USB/Core/AVR8/../AVR8/Endpoint_AVR8.h **** 				#define ENDPOINT_DETAILS_EP3               64,  2
 108:../../LUFA/Drivers/USB/Core/AVR8/../AVR8/Endpoint_AVR8.h **** 				#define ENDPOINT_DETAILS_EP4               64,  2
 109:../../LUFA/Drivers/USB/Core/AVR8/../AVR8/Endpoint_AVR8.h **** 				#define ENDPOINT_DETAILS_EP5               64,  2
 110:../../LUFA/Drivers/USB/Core/AVR8/../AVR8/Endpoint_AVR8.h **** 				#define ENDPOINT_DETAILS_EP6               64,  2
 111:../../LUFA/Drivers/USB/Core/AVR8/../AVR8/Endpoint_AVR8.h **** 			#else
 112:../../LUFA/Drivers/USB/Core/AVR8/../AVR8/Endpoint_AVR8.h **** 				#define ENDPOINT_DETAILS_MAXEP             5
 113:../../LUFA/Drivers/USB/Core/AVR8/../AVR8/Endpoint_AVR8.h **** 
 114:../../LUFA/Drivers/USB/Core/AVR8/../AVR8/Endpoint_AVR8.h **** 				#define ENDPOINT_DETAILS_EP0               64,  1
 115:../../LUFA/Drivers/USB/Core/AVR8/../AVR8/Endpoint_AVR8.h **** 				#define ENDPOINT_DETAILS_EP1               64,  1
 116:../../LUFA/Drivers/USB/Core/AVR8/../AVR8/Endpoint_AVR8.h **** 				#define ENDPOINT_DETAILS_EP2               64,  1
 117:../../LUFA/Drivers/USB/Core/AVR8/../AVR8/Endpoint_AVR8.h **** 				#define ENDPOINT_DETAILS_EP3               64,  2
 118:../../LUFA/Drivers/USB/Core/AVR8/../AVR8/Endpoint_AVR8.h **** 				#define ENDPOINT_DETAILS_EP4               64,  2
 119:../../LUFA/Drivers/USB/Core/AVR8/../AVR8/Endpoint_AVR8.h **** 			#endif
 120:../../LUFA/Drivers/USB/Core/AVR8/../AVR8/Endpoint_AVR8.h **** 
 121:../../LUFA/Drivers/USB/Core/AVR8/../AVR8/Endpoint_AVR8.h **** 		/* Inline Functions: */
 122:../../LUFA/Drivers/USB/Core/AVR8/../AVR8/Endpoint_AVR8.h **** 			static inline uint8_t Endpoint_BytesToEPSizeMask(const uint16_t Bytes) ATTR_WARN_UNUSED_RESULT A
 123:../../LUFA/Drivers/USB/Core/AVR8/../AVR8/Endpoint_AVR8.h **** 			                                                                       ATTR_ALWAYS_INLINE;
 124:../../LUFA/Drivers/USB/Core/AVR8/../AVR8/Endpoint_AVR8.h **** 			static inline uint8_t Endpoint_BytesToEPSizeMask(const uint16_t Bytes)
 125:../../LUFA/Drivers/USB/Core/AVR8/../AVR8/Endpoint_AVR8.h **** 			{
 126:../../LUFA/Drivers/USB/Core/AVR8/../AVR8/Endpoint_AVR8.h **** 				uint8_t  MaskVal    = 0;
 127:../../LUFA/Drivers/USB/Core/AVR8/../AVR8/Endpoint_AVR8.h **** 				uint16_t CheckBytes = 8;
 128:../../LUFA/Drivers/USB/Core/AVR8/../AVR8/Endpoint_AVR8.h **** 
 129:../../LUFA/Drivers/USB/Core/AVR8/../AVR8/Endpoint_AVR8.h **** 				while (CheckBytes < Bytes)
 130:../../LUFA/Drivers/USB/Core/AVR8/../AVR8/Endpoint_AVR8.h **** 				{
 131:../../LUFA/Drivers/USB/Core/AVR8/../AVR8/Endpoint_AVR8.h **** 					MaskVal++;
 132:../../LUFA/Drivers/USB/Core/AVR8/../AVR8/Endpoint_AVR8.h **** 					CheckBytes <<= 1;
 133:../../LUFA/Drivers/USB/Core/AVR8/../AVR8/Endpoint_AVR8.h **** 				}
 134:../../LUFA/Drivers/USB/Core/AVR8/../AVR8/Endpoint_AVR8.h **** 
 135:../../LUFA/Drivers/USB/Core/AVR8/../AVR8/Endpoint_AVR8.h **** 				return (MaskVal << EPSIZE0);
 136:../../LUFA/Drivers/USB/Core/AVR8/../AVR8/Endpoint_AVR8.h **** 			}
 137:../../LUFA/Drivers/USB/Core/AVR8/../AVR8/Endpoint_AVR8.h **** 
 138:../../LUFA/Drivers/USB/Core/AVR8/../AVR8/Endpoint_AVR8.h **** 		/* Function Prototypes: */
 139:../../LUFA/Drivers/USB/Core/AVR8/../AVR8/Endpoint_AVR8.h **** 			void Endpoint_ClearEndpoints(void);
 140:../../LUFA/Drivers/USB/Core/AVR8/../AVR8/Endpoint_AVR8.h **** 			bool Endpoint_ConfigureEndpoint_Prv(const uint8_t Number,
 141:../../LUFA/Drivers/USB/Core/AVR8/../AVR8/Endpoint_AVR8.h **** 			                                    const uint8_t UECFG0XData,
 142:../../LUFA/Drivers/USB/Core/AVR8/../AVR8/Endpoint_AVR8.h **** 			                                    const uint8_t UECFG1XData);
 143:../../LUFA/Drivers/USB/Core/AVR8/../AVR8/Endpoint_AVR8.h **** 
 144:../../LUFA/Drivers/USB/Core/AVR8/../AVR8/Endpoint_AVR8.h **** 	#endif
 145:../../LUFA/Drivers/USB/Core/AVR8/../AVR8/Endpoint_AVR8.h **** 
 146:../../LUFA/Drivers/USB/Core/AVR8/../AVR8/Endpoint_AVR8.h **** 	/* Public Interface - May be used in end-application: */
 147:../../LUFA/Drivers/USB/Core/AVR8/../AVR8/Endpoint_AVR8.h **** 		/* Macros: */			
 148:../../LUFA/Drivers/USB/Core/AVR8/../AVR8/Endpoint_AVR8.h **** 			/** \name Endpoint Bank Mode Masks */
 149:../../LUFA/Drivers/USB/Core/AVR8/../AVR8/Endpoint_AVR8.h **** 			//@{
 150:../../LUFA/Drivers/USB/Core/AVR8/../AVR8/Endpoint_AVR8.h **** 			/** Mask for the bank mode selection for the \ref Endpoint_ConfigureEndpoint() macro. This indic
 151:../../LUFA/Drivers/USB/Core/AVR8/../AVR8/Endpoint_AVR8.h **** 			 *  that the endpoint should have one single bank, which requires less USB FIFO memory but resul
 152:../../LUFA/Drivers/USB/Core/AVR8/../AVR8/Endpoint_AVR8.h **** 			 *  in slower transfers as only one USB device (the AVR or the host) can access the endpoint's
 153:../../LUFA/Drivers/USB/Core/AVR8/../AVR8/Endpoint_AVR8.h **** 			 *  bank at the one time.
 154:../../LUFA/Drivers/USB/Core/AVR8/../AVR8/Endpoint_AVR8.h **** 			 */
 155:../../LUFA/Drivers/USB/Core/AVR8/../AVR8/Endpoint_AVR8.h **** 			#define ENDPOINT_BANK_SINGLE                    (0 << EPBK0)
 156:../../LUFA/Drivers/USB/Core/AVR8/../AVR8/Endpoint_AVR8.h **** 
 157:../../LUFA/Drivers/USB/Core/AVR8/../AVR8/Endpoint_AVR8.h **** 			/** Mask for the bank mode selection for the \ref Endpoint_ConfigureEndpoint() macro. This indic
 158:../../LUFA/Drivers/USB/Core/AVR8/../AVR8/Endpoint_AVR8.h **** 			 *  that the endpoint should have two banks, which requires more USB FIFO memory but results
 159:../../LUFA/Drivers/USB/Core/AVR8/../AVR8/Endpoint_AVR8.h **** 			 *  in faster transfers as one USB device (the AVR or the host) can access one bank while the ot
 160:../../LUFA/Drivers/USB/Core/AVR8/../AVR8/Endpoint_AVR8.h **** 			 *  accesses the second bank.
 161:../../LUFA/Drivers/USB/Core/AVR8/../AVR8/Endpoint_AVR8.h **** 			 */
 162:../../LUFA/Drivers/USB/Core/AVR8/../AVR8/Endpoint_AVR8.h **** 			#define ENDPOINT_BANK_DOUBLE                    (1 << EPBK0)
 163:../../LUFA/Drivers/USB/Core/AVR8/../AVR8/Endpoint_AVR8.h **** 			//@}
 164:../../LUFA/Drivers/USB/Core/AVR8/../AVR8/Endpoint_AVR8.h **** 
 165:../../LUFA/Drivers/USB/Core/AVR8/../AVR8/Endpoint_AVR8.h **** 			#if (!defined(FIXED_CONTROL_ENDPOINT_SIZE) || defined(__DOXYGEN__))
 166:../../LUFA/Drivers/USB/Core/AVR8/../AVR8/Endpoint_AVR8.h **** 				/** Default size of the default control endpoint's bank, until altered by the control endpoint 
 167:../../LUFA/Drivers/USB/Core/AVR8/../AVR8/Endpoint_AVR8.h **** 				 *  value in the device descriptor. Not available if the \c FIXED_CONTROL_ENDPOINT_SIZE token i
 168:../../LUFA/Drivers/USB/Core/AVR8/../AVR8/Endpoint_AVR8.h **** 				 */
 169:../../LUFA/Drivers/USB/Core/AVR8/../AVR8/Endpoint_AVR8.h **** 				#define ENDPOINT_CONTROLEP_DEFAULT_SIZE     8
 170:../../LUFA/Drivers/USB/Core/AVR8/../AVR8/Endpoint_AVR8.h **** 			#endif
 171:../../LUFA/Drivers/USB/Core/AVR8/../AVR8/Endpoint_AVR8.h **** 
 172:../../LUFA/Drivers/USB/Core/AVR8/../AVR8/Endpoint_AVR8.h **** 			/** Retrieves the maximum bank size in bytes of a given endpoint.
 173:../../LUFA/Drivers/USB/Core/AVR8/../AVR8/Endpoint_AVR8.h **** 			 *
 174:../../LUFA/Drivers/USB/Core/AVR8/../AVR8/Endpoint_AVR8.h **** 			 *  \note This macro will only work correctly on endpoint indexes that are compile-time constant
 175:../../LUFA/Drivers/USB/Core/AVR8/../AVR8/Endpoint_AVR8.h **** 			 *        defined by the preprocessor.
 176:../../LUFA/Drivers/USB/Core/AVR8/../AVR8/Endpoint_AVR8.h **** 			 *
 177:../../LUFA/Drivers/USB/Core/AVR8/../AVR8/Endpoint_AVR8.h **** 			 *  \param[in] EPIndex  Endpoint number, a value between 0 and (\ref ENDPOINT_TOTAL_ENDPOINTS - 
 178:../../LUFA/Drivers/USB/Core/AVR8/../AVR8/Endpoint_AVR8.h **** 			 */
 179:../../LUFA/Drivers/USB/Core/AVR8/../AVR8/Endpoint_AVR8.h **** 			#define ENDPOINT_MAX_SIZE(EPIndex)              _ENDPOINT_GET_MAXSIZE(EPIndex)
 180:../../LUFA/Drivers/USB/Core/AVR8/../AVR8/Endpoint_AVR8.h **** 
 181:../../LUFA/Drivers/USB/Core/AVR8/../AVR8/Endpoint_AVR8.h **** 			/** Retrieves the total number of banks supported by the given endpoint.
 182:../../LUFA/Drivers/USB/Core/AVR8/../AVR8/Endpoint_AVR8.h **** 			 *
 183:../../LUFA/Drivers/USB/Core/AVR8/../AVR8/Endpoint_AVR8.h **** 			 *  \note This macro will only work correctly on endpoint indexes that are compile-time constant
 184:../../LUFA/Drivers/USB/Core/AVR8/../AVR8/Endpoint_AVR8.h **** 			 *        defined by the preprocessor.
 185:../../LUFA/Drivers/USB/Core/AVR8/../AVR8/Endpoint_AVR8.h **** 			 *
 186:../../LUFA/Drivers/USB/Core/AVR8/../AVR8/Endpoint_AVR8.h **** 			 *  \param[in] EPIndex  Endpoint number, a value between 0 and (\ref ENDPOINT_TOTAL_ENDPOINTS - 
 187:../../LUFA/Drivers/USB/Core/AVR8/../AVR8/Endpoint_AVR8.h **** 			 */
 188:../../LUFA/Drivers/USB/Core/AVR8/../AVR8/Endpoint_AVR8.h **** 			#define ENDPOINT_BANKS_SUPPORTED(EPIndex)       _ENDPOINT_GET_BANKS(EPIndex)
 189:../../LUFA/Drivers/USB/Core/AVR8/../AVR8/Endpoint_AVR8.h **** 
 190:../../LUFA/Drivers/USB/Core/AVR8/../AVR8/Endpoint_AVR8.h **** 			#if !defined(CONTROL_ONLY_DEVICE) || defined(__DOXYGEN__)
 191:../../LUFA/Drivers/USB/Core/AVR8/../AVR8/Endpoint_AVR8.h **** 				/** Total number of endpoints (including the default control endpoint at address 0) which may
 192:../../LUFA/Drivers/USB/Core/AVR8/../AVR8/Endpoint_AVR8.h **** 				 *  be used in the device. Different USB AVR models support different amounts of endpoints,
 193:../../LUFA/Drivers/USB/Core/AVR8/../AVR8/Endpoint_AVR8.h **** 				 *  this value reflects the maximum number of endpoints for the currently selected AVR model.
 194:../../LUFA/Drivers/USB/Core/AVR8/../AVR8/Endpoint_AVR8.h **** 				 */
 195:../../LUFA/Drivers/USB/Core/AVR8/../AVR8/Endpoint_AVR8.h **** 				#define ENDPOINT_TOTAL_ENDPOINTS            ENDPOINT_DETAILS_MAXEP
 196:../../LUFA/Drivers/USB/Core/AVR8/../AVR8/Endpoint_AVR8.h **** 			#else
 197:../../LUFA/Drivers/USB/Core/AVR8/../AVR8/Endpoint_AVR8.h **** 				#define ENDPOINT_TOTAL_ENDPOINTS            1
 198:../../LUFA/Drivers/USB/Core/AVR8/../AVR8/Endpoint_AVR8.h **** 			#endif
 199:../../LUFA/Drivers/USB/Core/AVR8/../AVR8/Endpoint_AVR8.h **** 
 200:../../LUFA/Drivers/USB/Core/AVR8/../AVR8/Endpoint_AVR8.h **** 		/* Enums: */
 201:../../LUFA/Drivers/USB/Core/AVR8/../AVR8/Endpoint_AVR8.h **** 			/** Enum for the possible error return codes of the \ref Endpoint_WaitUntilReady() function.
 202:../../LUFA/Drivers/USB/Core/AVR8/../AVR8/Endpoint_AVR8.h **** 			 *
 203:../../LUFA/Drivers/USB/Core/AVR8/../AVR8/Endpoint_AVR8.h **** 			 *  \ingroup Group_EndpointRW_AVR8
 204:../../LUFA/Drivers/USB/Core/AVR8/../AVR8/Endpoint_AVR8.h **** 			 */
 205:../../LUFA/Drivers/USB/Core/AVR8/../AVR8/Endpoint_AVR8.h **** 			enum Endpoint_WaitUntilReady_ErrorCodes_t
 206:../../LUFA/Drivers/USB/Core/AVR8/../AVR8/Endpoint_AVR8.h **** 			{
 207:../../LUFA/Drivers/USB/Core/AVR8/../AVR8/Endpoint_AVR8.h **** 				ENDPOINT_READYWAIT_NoError                 = 0, /**< Endpoint is ready for next packet, no erro
 208:../../LUFA/Drivers/USB/Core/AVR8/../AVR8/Endpoint_AVR8.h **** 				ENDPOINT_READYWAIT_EndpointStalled         = 1, /**< The endpoint was stalled during the stream
 209:../../LUFA/Drivers/USB/Core/AVR8/../AVR8/Endpoint_AVR8.h **** 				                                                 *   transfer by the host or device.
 210:../../LUFA/Drivers/USB/Core/AVR8/../AVR8/Endpoint_AVR8.h **** 				                                                 */
 211:../../LUFA/Drivers/USB/Core/AVR8/../AVR8/Endpoint_AVR8.h **** 				ENDPOINT_READYWAIT_DeviceDisconnected      = 2,	/**< Device was disconnected from the host whil
 212:../../LUFA/Drivers/USB/Core/AVR8/../AVR8/Endpoint_AVR8.h **** 				                                                 *   waiting for the endpoint to become ready.
 213:../../LUFA/Drivers/USB/Core/AVR8/../AVR8/Endpoint_AVR8.h **** 				                                                 */
 214:../../LUFA/Drivers/USB/Core/AVR8/../AVR8/Endpoint_AVR8.h **** 				ENDPOINT_READYWAIT_BusSuspended            = 3, /**< The USB bus has been suspended by the host
 215:../../LUFA/Drivers/USB/Core/AVR8/../AVR8/Endpoint_AVR8.h **** 				                                                 *   no USB endpoint traffic can occur until th
 216:../../LUFA/Drivers/USB/Core/AVR8/../AVR8/Endpoint_AVR8.h **** 				                                                 *   has resumed.
 217:../../LUFA/Drivers/USB/Core/AVR8/../AVR8/Endpoint_AVR8.h **** 				                                                 */
 218:../../LUFA/Drivers/USB/Core/AVR8/../AVR8/Endpoint_AVR8.h **** 				ENDPOINT_READYWAIT_Timeout                 = 4, /**< The host failed to accept or send the next
 219:../../LUFA/Drivers/USB/Core/AVR8/../AVR8/Endpoint_AVR8.h **** 				                                                 *   within the software timeout period set by 
 220:../../LUFA/Drivers/USB/Core/AVR8/../AVR8/Endpoint_AVR8.h **** 				                                                 *   \ref USB_STREAM_TIMEOUT_MS macro.
 221:../../LUFA/Drivers/USB/Core/AVR8/../AVR8/Endpoint_AVR8.h **** 				                                                 */
 222:../../LUFA/Drivers/USB/Core/AVR8/../AVR8/Endpoint_AVR8.h **** 			};
 223:../../LUFA/Drivers/USB/Core/AVR8/../AVR8/Endpoint_AVR8.h **** 
 224:../../LUFA/Drivers/USB/Core/AVR8/../AVR8/Endpoint_AVR8.h **** 		/* Inline Functions: */
 225:../../LUFA/Drivers/USB/Core/AVR8/../AVR8/Endpoint_AVR8.h **** 			/** Configures the specified endpoint number with the given endpoint type, direction, bank size
 226:../../LUFA/Drivers/USB/Core/AVR8/../AVR8/Endpoint_AVR8.h **** 			 *  and banking mode. Once configured, the endpoint may be read from or written to, depending
 227:../../LUFA/Drivers/USB/Core/AVR8/../AVR8/Endpoint_AVR8.h **** 			 *  on its direction.
 228:../../LUFA/Drivers/USB/Core/AVR8/../AVR8/Endpoint_AVR8.h **** 			 *
 229:../../LUFA/Drivers/USB/Core/AVR8/../AVR8/Endpoint_AVR8.h **** 			 *  \param[in] Number     Endpoint number to configure. This must be more than 0 and less than
 230:../../LUFA/Drivers/USB/Core/AVR8/../AVR8/Endpoint_AVR8.h **** 			 *                        \ref ENDPOINT_TOTAL_ENDPOINTS.
 231:../../LUFA/Drivers/USB/Core/AVR8/../AVR8/Endpoint_AVR8.h **** 			 *
 232:../../LUFA/Drivers/USB/Core/AVR8/../AVR8/Endpoint_AVR8.h **** 			 *  \param[in] Type       Type of endpoint to configure, a \c EP_TYPE_* mask. Not all endpoint t
 233:../../LUFA/Drivers/USB/Core/AVR8/../AVR8/Endpoint_AVR8.h **** 			 *                        are available on Low Speed USB devices - refer to the USB 2.0 specific
 234:../../LUFA/Drivers/USB/Core/AVR8/../AVR8/Endpoint_AVR8.h **** 			 *
 235:../../LUFA/Drivers/USB/Core/AVR8/../AVR8/Endpoint_AVR8.h **** 			 *  \param[in] Direction  Endpoint data direction, either \ref ENDPOINT_DIR_OUT or \ref ENDPOINT
 236:../../LUFA/Drivers/USB/Core/AVR8/../AVR8/Endpoint_AVR8.h **** 			 *                        All endpoints (except Control type) are unidirectional - data may only
 237:../../LUFA/Drivers/USB/Core/AVR8/../AVR8/Endpoint_AVR8.h **** 			 *                        from or written to the endpoint bank based on its direction, not both.
 238:../../LUFA/Drivers/USB/Core/AVR8/../AVR8/Endpoint_AVR8.h **** 			 *
 239:../../LUFA/Drivers/USB/Core/AVR8/../AVR8/Endpoint_AVR8.h **** 			 *  \param[in] Size       Size of the endpoint's bank, where packets are stored before they are 
 240:../../LUFA/Drivers/USB/Core/AVR8/../AVR8/Endpoint_AVR8.h **** 			 *                        to the USB host, or after they have been received from the USB host (d
 241:../../LUFA/Drivers/USB/Core/AVR8/../AVR8/Endpoint_AVR8.h **** 			 *                        the endpoint's data direction). The bank size must indicate the maximu
 242:../../LUFA/Drivers/USB/Core/AVR8/../AVR8/Endpoint_AVR8.h **** 			 *                        that the endpoint can handle.
 243:../../LUFA/Drivers/USB/Core/AVR8/../AVR8/Endpoint_AVR8.h **** 			 *
 244:../../LUFA/Drivers/USB/Core/AVR8/../AVR8/Endpoint_AVR8.h **** 			 *  \param[in] Banks      Number of banks to use for the endpoint being configured, an \c ENDPOI
 245:../../LUFA/Drivers/USB/Core/AVR8/../AVR8/Endpoint_AVR8.h **** 			 *                        More banks uses more USB DPRAM, but offers better performance. Isochro
 246:../../LUFA/Drivers/USB/Core/AVR8/../AVR8/Endpoint_AVR8.h **** 			 *                        endpoints <b>must</b> have at least two banks.
 247:../../LUFA/Drivers/USB/Core/AVR8/../AVR8/Endpoint_AVR8.h **** 			 *
 248:../../LUFA/Drivers/USB/Core/AVR8/../AVR8/Endpoint_AVR8.h **** 			 *  \note When the \c ORDERED_EP_CONFIG compile time option is used, Endpoints <b>must</b> be co
 249:../../LUFA/Drivers/USB/Core/AVR8/../AVR8/Endpoint_AVR8.h **** 			 *        ascending order, or bank corruption will occur.
 250:../../LUFA/Drivers/USB/Core/AVR8/../AVR8/Endpoint_AVR8.h **** 			 *        \n\n
 251:../../LUFA/Drivers/USB/Core/AVR8/../AVR8/Endpoint_AVR8.h **** 			 *
 252:../../LUFA/Drivers/USB/Core/AVR8/../AVR8/Endpoint_AVR8.h **** 			 *  \note Different endpoints may have different maximum packet sizes based on the endpoint's in
 253:../../LUFA/Drivers/USB/Core/AVR8/../AVR8/Endpoint_AVR8.h **** 			 *        the chosen microcontroller model's datasheet to determine the maximum bank size for ea
 254:../../LUFA/Drivers/USB/Core/AVR8/../AVR8/Endpoint_AVR8.h **** 			 *        \n\n
 255:../../LUFA/Drivers/USB/Core/AVR8/../AVR8/Endpoint_AVR8.h **** 			 *
 256:../../LUFA/Drivers/USB/Core/AVR8/../AVR8/Endpoint_AVR8.h **** 			 *  \note The default control endpoint should not be manually configured by the user application
 257:../../LUFA/Drivers/USB/Core/AVR8/../AVR8/Endpoint_AVR8.h **** 			 *        it is automatically configured by the library internally.
 258:../../LUFA/Drivers/USB/Core/AVR8/../AVR8/Endpoint_AVR8.h **** 			 *        \n\n
 259:../../LUFA/Drivers/USB/Core/AVR8/../AVR8/Endpoint_AVR8.h **** 			 *
 260:../../LUFA/Drivers/USB/Core/AVR8/../AVR8/Endpoint_AVR8.h **** 			 *  \note This routine will automatically select the specified endpoint upon success. Upon failu
 261:../../LUFA/Drivers/USB/Core/AVR8/../AVR8/Endpoint_AVR8.h **** 			 *        which failed to reconfigure correctly will be selected.
 262:../../LUFA/Drivers/USB/Core/AVR8/../AVR8/Endpoint_AVR8.h **** 			 *
 263:../../LUFA/Drivers/USB/Core/AVR8/../AVR8/Endpoint_AVR8.h **** 			 *  \return Boolean \c true if the configuration succeeded, \c false otherwise.
 264:../../LUFA/Drivers/USB/Core/AVR8/../AVR8/Endpoint_AVR8.h **** 			 */
 265:../../LUFA/Drivers/USB/Core/AVR8/../AVR8/Endpoint_AVR8.h **** 			static inline bool Endpoint_ConfigureEndpoint(const uint8_t Number,
 266:../../LUFA/Drivers/USB/Core/AVR8/../AVR8/Endpoint_AVR8.h **** 			                                              const uint8_t Type,
 267:../../LUFA/Drivers/USB/Core/AVR8/../AVR8/Endpoint_AVR8.h **** 			                                              const uint8_t Direction,
 268:../../LUFA/Drivers/USB/Core/AVR8/../AVR8/Endpoint_AVR8.h **** 			                                              const uint16_t Size,
 269:../../LUFA/Drivers/USB/Core/AVR8/../AVR8/Endpoint_AVR8.h **** 			                                              const uint8_t Banks) ATTR_ALWAYS_INLINE;
 270:../../LUFA/Drivers/USB/Core/AVR8/../AVR8/Endpoint_AVR8.h **** 			static inline bool Endpoint_ConfigureEndpoint(const uint8_t Number,
 271:../../LUFA/Drivers/USB/Core/AVR8/../AVR8/Endpoint_AVR8.h **** 			                                              const uint8_t Type,
 272:../../LUFA/Drivers/USB/Core/AVR8/../AVR8/Endpoint_AVR8.h **** 			                                              const uint8_t Direction,
 273:../../LUFA/Drivers/USB/Core/AVR8/../AVR8/Endpoint_AVR8.h **** 			                                              const uint16_t Size,
 274:../../LUFA/Drivers/USB/Core/AVR8/../AVR8/Endpoint_AVR8.h **** 			                                              const uint8_t Banks)
 275:../../LUFA/Drivers/USB/Core/AVR8/../AVR8/Endpoint_AVR8.h **** 			{
 276:../../LUFA/Drivers/USB/Core/AVR8/../AVR8/Endpoint_AVR8.h **** 				return Endpoint_ConfigureEndpoint_Prv(Number, ((Type << EPTYPE0) | (Direction ? (1 << EPDIR) : 
 277:../../LUFA/Drivers/USB/Core/AVR8/../AVR8/Endpoint_AVR8.h **** 				                                      ((1 << ALLOC) | Banks | Endpoint_BytesToEPSizeMask(Size))
 278:../../LUFA/Drivers/USB/Core/AVR8/../AVR8/Endpoint_AVR8.h **** 			}
 279:../../LUFA/Drivers/USB/Core/AVR8/../AVR8/Endpoint_AVR8.h **** 
 280:../../LUFA/Drivers/USB/Core/AVR8/../AVR8/Endpoint_AVR8.h **** 			/** Indicates the number of bytes currently stored in the current endpoint's selected bank.
 281:../../LUFA/Drivers/USB/Core/AVR8/../AVR8/Endpoint_AVR8.h **** 			 *
 282:../../LUFA/Drivers/USB/Core/AVR8/../AVR8/Endpoint_AVR8.h **** 			 *  \note The return width of this function may differ, depending on the maximum endpoint bank s
 283:../../LUFA/Drivers/USB/Core/AVR8/../AVR8/Endpoint_AVR8.h **** 			 *        of the selected AVR model.
 284:../../LUFA/Drivers/USB/Core/AVR8/../AVR8/Endpoint_AVR8.h **** 			 *
 285:../../LUFA/Drivers/USB/Core/AVR8/../AVR8/Endpoint_AVR8.h **** 			 *  \ingroup Group_EndpointRW_AVR8
 286:../../LUFA/Drivers/USB/Core/AVR8/../AVR8/Endpoint_AVR8.h **** 			 *
 287:../../LUFA/Drivers/USB/Core/AVR8/../AVR8/Endpoint_AVR8.h **** 			 *  \return Total number of bytes in the currently selected Endpoint's FIFO buffer.
 288:../../LUFA/Drivers/USB/Core/AVR8/../AVR8/Endpoint_AVR8.h **** 			 */
 289:../../LUFA/Drivers/USB/Core/AVR8/../AVR8/Endpoint_AVR8.h **** 			static inline uint16_t Endpoint_BytesInEndpoint(void) ATTR_WARN_UNUSED_RESULT ATTR_ALWAYS_INLINE
 290:../../LUFA/Drivers/USB/Core/AVR8/../AVR8/Endpoint_AVR8.h **** 			static inline uint16_t Endpoint_BytesInEndpoint(void)
 291:../../LUFA/Drivers/USB/Core/AVR8/../AVR8/Endpoint_AVR8.h **** 			{
 292:../../LUFA/Drivers/USB/Core/AVR8/../AVR8/Endpoint_AVR8.h **** 				#if defined(USB_SERIES_6_AVR) || defined(USB_SERIES_7_AVR)
 293:../../LUFA/Drivers/USB/Core/AVR8/../AVR8/Endpoint_AVR8.h **** 					return UEBCX;
 294:../../LUFA/Drivers/USB/Core/AVR8/../AVR8/Endpoint_AVR8.h **** 				#elif defined(USB_SERIES_4_AVR)
 295:../../LUFA/Drivers/USB/Core/AVR8/../AVR8/Endpoint_AVR8.h **** 					return (((uint16_t)UEBCHX << 8) | UEBCLX);
 296:../../LUFA/Drivers/USB/Core/AVR8/../AVR8/Endpoint_AVR8.h **** 				#elif defined(USB_SERIES_2_AVR)
 297:../../LUFA/Drivers/USB/Core/AVR8/../AVR8/Endpoint_AVR8.h **** 					return UEBCLX;
 298:../../LUFA/Drivers/USB/Core/AVR8/../AVR8/Endpoint_AVR8.h **** 				#endif
 299:../../LUFA/Drivers/USB/Core/AVR8/../AVR8/Endpoint_AVR8.h **** 			}
 300:../../LUFA/Drivers/USB/Core/AVR8/../AVR8/Endpoint_AVR8.h **** 
 301:../../LUFA/Drivers/USB/Core/AVR8/../AVR8/Endpoint_AVR8.h **** 			/** Get the endpoint address of the currently selected endpoint. This is typically used to save
 302:../../LUFA/Drivers/USB/Core/AVR8/../AVR8/Endpoint_AVR8.h **** 			 *  the currently selected endpoint number so that it can be restored after another endpoint has
 303:../../LUFA/Drivers/USB/Core/AVR8/../AVR8/Endpoint_AVR8.h **** 			 *  been manipulated.
 304:../../LUFA/Drivers/USB/Core/AVR8/../AVR8/Endpoint_AVR8.h **** 			 *
 305:../../LUFA/Drivers/USB/Core/AVR8/../AVR8/Endpoint_AVR8.h **** 			 *  \return Index of the currently selected endpoint.
 306:../../LUFA/Drivers/USB/Core/AVR8/../AVR8/Endpoint_AVR8.h **** 			 */
 307:../../LUFA/Drivers/USB/Core/AVR8/../AVR8/Endpoint_AVR8.h **** 			static inline uint8_t Endpoint_GetCurrentEndpoint(void) ATTR_WARN_UNUSED_RESULT ATTR_ALWAYS_INLI
 308:../../LUFA/Drivers/USB/Core/AVR8/../AVR8/Endpoint_AVR8.h **** 			static inline uint8_t Endpoint_GetCurrentEndpoint(void)
 309:../../LUFA/Drivers/USB/Core/AVR8/../AVR8/Endpoint_AVR8.h **** 			{
 310:../../LUFA/Drivers/USB/Core/AVR8/../AVR8/Endpoint_AVR8.h **** 				#if !defined(CONTROL_ONLY_DEVICE)
 311:../../LUFA/Drivers/USB/Core/AVR8/../AVR8/Endpoint_AVR8.h **** 					return (UENUM & ENDPOINT_EPNUM_MASK);
 312:../../LUFA/Drivers/USB/Core/AVR8/../AVR8/Endpoint_AVR8.h **** 				#else
 313:../../LUFA/Drivers/USB/Core/AVR8/../AVR8/Endpoint_AVR8.h **** 					return ENDPOINT_CONTROLEP;
 314:../../LUFA/Drivers/USB/Core/AVR8/../AVR8/Endpoint_AVR8.h **** 				#endif
 315:../../LUFA/Drivers/USB/Core/AVR8/../AVR8/Endpoint_AVR8.h **** 			}
 316:../../LUFA/Drivers/USB/Core/AVR8/../AVR8/Endpoint_AVR8.h **** 
 317:../../LUFA/Drivers/USB/Core/AVR8/../AVR8/Endpoint_AVR8.h **** 			/** Selects the given endpoint number. If the address from the device descriptors is used, the
 318:../../LUFA/Drivers/USB/Core/AVR8/../AVR8/Endpoint_AVR8.h **** 			 *  value should be masked with the \ref ENDPOINT_EPNUM_MASK constant to extract only the endpoi
 319:../../LUFA/Drivers/USB/Core/AVR8/../AVR8/Endpoint_AVR8.h **** 			 *  number (and discarding the endpoint direction bit).
 320:../../LUFA/Drivers/USB/Core/AVR8/../AVR8/Endpoint_AVR8.h **** 			 *
 321:../../LUFA/Drivers/USB/Core/AVR8/../AVR8/Endpoint_AVR8.h **** 			 *  Any endpoint operations which do not require the endpoint number to be indicated will operat
 322:../../LUFA/Drivers/USB/Core/AVR8/../AVR8/Endpoint_AVR8.h **** 			 *  the currently selected endpoint.
 323:../../LUFA/Drivers/USB/Core/AVR8/../AVR8/Endpoint_AVR8.h **** 			 *
 324:../../LUFA/Drivers/USB/Core/AVR8/../AVR8/Endpoint_AVR8.h **** 			 *  \param[in] EndpointNumber Endpoint number to select.
 325:../../LUFA/Drivers/USB/Core/AVR8/../AVR8/Endpoint_AVR8.h **** 			 */
 326:../../LUFA/Drivers/USB/Core/AVR8/../AVR8/Endpoint_AVR8.h **** 			static inline void Endpoint_SelectEndpoint(const uint8_t EndpointNumber) ATTR_ALWAYS_INLINE;
 327:../../LUFA/Drivers/USB/Core/AVR8/../AVR8/Endpoint_AVR8.h **** 			static inline void Endpoint_SelectEndpoint(const uint8_t EndpointNumber)
 328:../../LUFA/Drivers/USB/Core/AVR8/../AVR8/Endpoint_AVR8.h **** 			{
 329:../../LUFA/Drivers/USB/Core/AVR8/../AVR8/Endpoint_AVR8.h **** 				#if !defined(CONTROL_ONLY_DEVICE)
 330:../../LUFA/Drivers/USB/Core/AVR8/../AVR8/Endpoint_AVR8.h **** 					UENUM = EndpointNumber;
 331:../../LUFA/Drivers/USB/Core/AVR8/../AVR8/Endpoint_AVR8.h **** 				#endif
 332:../../LUFA/Drivers/USB/Core/AVR8/../AVR8/Endpoint_AVR8.h **** 			}
 333:../../LUFA/Drivers/USB/Core/AVR8/../AVR8/Endpoint_AVR8.h **** 
 334:../../LUFA/Drivers/USB/Core/AVR8/../AVR8/Endpoint_AVR8.h **** 			/** Resets the endpoint bank FIFO. This clears all the endpoint banks and resets the USB control
 335:../../LUFA/Drivers/USB/Core/AVR8/../AVR8/Endpoint_AVR8.h **** 			 *  data In and Out pointers to the bank's contents.
 336:../../LUFA/Drivers/USB/Core/AVR8/../AVR8/Endpoint_AVR8.h **** 			 *
 337:../../LUFA/Drivers/USB/Core/AVR8/../AVR8/Endpoint_AVR8.h **** 			 *  \param[in] EndpointNumber Endpoint number whose FIFO buffers are to be reset.
 338:../../LUFA/Drivers/USB/Core/AVR8/../AVR8/Endpoint_AVR8.h **** 			 */
 339:../../LUFA/Drivers/USB/Core/AVR8/../AVR8/Endpoint_AVR8.h **** 			static inline void Endpoint_ResetEndpoint(const uint8_t EndpointNumber) ATTR_ALWAYS_INLINE;
 340:../../LUFA/Drivers/USB/Core/AVR8/../AVR8/Endpoint_AVR8.h **** 			static inline void Endpoint_ResetEndpoint(const uint8_t EndpointNumber)
 341:../../LUFA/Drivers/USB/Core/AVR8/../AVR8/Endpoint_AVR8.h **** 			{
 342:../../LUFA/Drivers/USB/Core/AVR8/../AVR8/Endpoint_AVR8.h **** 				UERST = (1 << EndpointNumber);
 343:../../LUFA/Drivers/USB/Core/AVR8/../AVR8/Endpoint_AVR8.h **** 				UERST = 0;
 344:../../LUFA/Drivers/USB/Core/AVR8/../AVR8/Endpoint_AVR8.h **** 			}
 345:../../LUFA/Drivers/USB/Core/AVR8/../AVR8/Endpoint_AVR8.h **** 
 346:../../LUFA/Drivers/USB/Core/AVR8/../AVR8/Endpoint_AVR8.h **** 			/** Enables the currently selected endpoint so that data can be sent and received through it to
 347:../../LUFA/Drivers/USB/Core/AVR8/../AVR8/Endpoint_AVR8.h **** 			 *  and from a host.
 348:../../LUFA/Drivers/USB/Core/AVR8/../AVR8/Endpoint_AVR8.h **** 			 *
 349:../../LUFA/Drivers/USB/Core/AVR8/../AVR8/Endpoint_AVR8.h **** 			 *  \note Endpoints must first be configured properly via \ref Endpoint_ConfigureEndpoint().
 350:../../LUFA/Drivers/USB/Core/AVR8/../AVR8/Endpoint_AVR8.h **** 			 */
 351:../../LUFA/Drivers/USB/Core/AVR8/../AVR8/Endpoint_AVR8.h **** 			static inline void Endpoint_EnableEndpoint(void) ATTR_ALWAYS_INLINE;
 352:../../LUFA/Drivers/USB/Core/AVR8/../AVR8/Endpoint_AVR8.h **** 			static inline void Endpoint_EnableEndpoint(void)
 353:../../LUFA/Drivers/USB/Core/AVR8/../AVR8/Endpoint_AVR8.h **** 			{
 354:../../LUFA/Drivers/USB/Core/AVR8/../AVR8/Endpoint_AVR8.h **** 				UECONX |= (1 << EPEN);
 355:../../LUFA/Drivers/USB/Core/AVR8/../AVR8/Endpoint_AVR8.h **** 			}
 356:../../LUFA/Drivers/USB/Core/AVR8/../AVR8/Endpoint_AVR8.h **** 
 357:../../LUFA/Drivers/USB/Core/AVR8/../AVR8/Endpoint_AVR8.h **** 			/** Disables the currently selected endpoint so that data cannot be sent and received through it
 358:../../LUFA/Drivers/USB/Core/AVR8/../AVR8/Endpoint_AVR8.h **** 			 *  to and from a host.
 359:../../LUFA/Drivers/USB/Core/AVR8/../AVR8/Endpoint_AVR8.h **** 			 */
 360:../../LUFA/Drivers/USB/Core/AVR8/../AVR8/Endpoint_AVR8.h **** 			static inline void Endpoint_DisableEndpoint(void) ATTR_ALWAYS_INLINE;
 361:../../LUFA/Drivers/USB/Core/AVR8/../AVR8/Endpoint_AVR8.h **** 			static inline void Endpoint_DisableEndpoint(void)
 362:../../LUFA/Drivers/USB/Core/AVR8/../AVR8/Endpoint_AVR8.h **** 			{
 363:../../LUFA/Drivers/USB/Core/AVR8/../AVR8/Endpoint_AVR8.h **** 				UECONX &= ~(1 << EPEN);
 364:../../LUFA/Drivers/USB/Core/AVR8/../AVR8/Endpoint_AVR8.h **** 			}
 365:../../LUFA/Drivers/USB/Core/AVR8/../AVR8/Endpoint_AVR8.h **** 
 366:../../LUFA/Drivers/USB/Core/AVR8/../AVR8/Endpoint_AVR8.h **** 			/** Determines if the currently selected endpoint is enabled, but not necessarily configured.
 367:../../LUFA/Drivers/USB/Core/AVR8/../AVR8/Endpoint_AVR8.h **** 			 *
 368:../../LUFA/Drivers/USB/Core/AVR8/../AVR8/Endpoint_AVR8.h **** 			 * \return Boolean \c true if the currently selected endpoint is enabled, \c false otherwise.
 369:../../LUFA/Drivers/USB/Core/AVR8/../AVR8/Endpoint_AVR8.h **** 			 */
 370:../../LUFA/Drivers/USB/Core/AVR8/../AVR8/Endpoint_AVR8.h **** 			static inline bool Endpoint_IsEnabled(void) ATTR_WARN_UNUSED_RESULT ATTR_ALWAYS_INLINE;
 371:../../LUFA/Drivers/USB/Core/AVR8/../AVR8/Endpoint_AVR8.h **** 			static inline bool Endpoint_IsEnabled(void)
 372:../../LUFA/Drivers/USB/Core/AVR8/../AVR8/Endpoint_AVR8.h **** 			{
 373:../../LUFA/Drivers/USB/Core/AVR8/../AVR8/Endpoint_AVR8.h **** 				return ((UECONX & (1 << EPEN)) ? true : false);
 374:../../LUFA/Drivers/USB/Core/AVR8/../AVR8/Endpoint_AVR8.h **** 			}
 375:../../LUFA/Drivers/USB/Core/AVR8/../AVR8/Endpoint_AVR8.h **** 
 376:../../LUFA/Drivers/USB/Core/AVR8/../AVR8/Endpoint_AVR8.h **** 			/** Retrieves the number of busy banks in the currently selected endpoint, which have been queue
 377:../../LUFA/Drivers/USB/Core/AVR8/../AVR8/Endpoint_AVR8.h **** 			 *  transmission via the \ref Endpoint_ClearIN() command, or are awaiting acknowledgement via th
 378:../../LUFA/Drivers/USB/Core/AVR8/../AVR8/Endpoint_AVR8.h **** 			 *  \ref Endpoint_ClearOUT() command.
 379:../../LUFA/Drivers/USB/Core/AVR8/../AVR8/Endpoint_AVR8.h **** 			 *
 380:../../LUFA/Drivers/USB/Core/AVR8/../AVR8/Endpoint_AVR8.h **** 			 *  \ingroup Group_EndpointPacketManagement_AVR8
 381:../../LUFA/Drivers/USB/Core/AVR8/../AVR8/Endpoint_AVR8.h **** 			 *
 382:../../LUFA/Drivers/USB/Core/AVR8/../AVR8/Endpoint_AVR8.h **** 			 *  \return Total number of busy banks in the selected endpoint.
 383:../../LUFA/Drivers/USB/Core/AVR8/../AVR8/Endpoint_AVR8.h **** 			 */
 384:../../LUFA/Drivers/USB/Core/AVR8/../AVR8/Endpoint_AVR8.h **** 			static inline uint8_t Endpoint_GetBusyBanks(void) ATTR_ALWAYS_INLINE ATTR_WARN_UNUSED_RESULT;
 385:../../LUFA/Drivers/USB/Core/AVR8/../AVR8/Endpoint_AVR8.h **** 			static inline uint8_t Endpoint_GetBusyBanks(void)
 386:../../LUFA/Drivers/USB/Core/AVR8/../AVR8/Endpoint_AVR8.h **** 			{
 387:../../LUFA/Drivers/USB/Core/AVR8/../AVR8/Endpoint_AVR8.h **** 				return (UESTA0X & (0x03 << NBUSYBK0));
 388:../../LUFA/Drivers/USB/Core/AVR8/../AVR8/Endpoint_AVR8.h **** 			}
 389:../../LUFA/Drivers/USB/Core/AVR8/../AVR8/Endpoint_AVR8.h **** 
 390:../../LUFA/Drivers/USB/Core/AVR8/../AVR8/Endpoint_AVR8.h **** 			/** Aborts all pending IN transactions on the currently selected endpoint, once the bank
 391:../../LUFA/Drivers/USB/Core/AVR8/../AVR8/Endpoint_AVR8.h **** 			 *  has been queued for transmission to the host via \ref Endpoint_ClearIN(). This function
 392:../../LUFA/Drivers/USB/Core/AVR8/../AVR8/Endpoint_AVR8.h **** 			 *  will terminate all queued transactions, resetting the endpoint banks ready for a new
 393:../../LUFA/Drivers/USB/Core/AVR8/../AVR8/Endpoint_AVR8.h **** 			 *  packet.
 394:../../LUFA/Drivers/USB/Core/AVR8/../AVR8/Endpoint_AVR8.h **** 			 *
 395:../../LUFA/Drivers/USB/Core/AVR8/../AVR8/Endpoint_AVR8.h **** 			 *  \ingroup Group_EndpointPacketManagement_AVR8
 396:../../LUFA/Drivers/USB/Core/AVR8/../AVR8/Endpoint_AVR8.h **** 			 */
 397:../../LUFA/Drivers/USB/Core/AVR8/../AVR8/Endpoint_AVR8.h **** 			static inline void Endpoint_AbortPendingIN(void)
 398:../../LUFA/Drivers/USB/Core/AVR8/../AVR8/Endpoint_AVR8.h **** 			{
 399:../../LUFA/Drivers/USB/Core/AVR8/../AVR8/Endpoint_AVR8.h **** 				while (Endpoint_GetBusyBanks() != 0)
 400:../../LUFA/Drivers/USB/Core/AVR8/../AVR8/Endpoint_AVR8.h **** 				{
 401:../../LUFA/Drivers/USB/Core/AVR8/../AVR8/Endpoint_AVR8.h **** 					UEINTX |= (1 << RXOUTI);
 402:../../LUFA/Drivers/USB/Core/AVR8/../AVR8/Endpoint_AVR8.h **** 					while (UEINTX & (1 << RXOUTI));
 403:../../LUFA/Drivers/USB/Core/AVR8/../AVR8/Endpoint_AVR8.h **** 				}
 404:../../LUFA/Drivers/USB/Core/AVR8/../AVR8/Endpoint_AVR8.h **** 			}
 405:../../LUFA/Drivers/USB/Core/AVR8/../AVR8/Endpoint_AVR8.h **** 
 406:../../LUFA/Drivers/USB/Core/AVR8/../AVR8/Endpoint_AVR8.h **** 			/** Determines if the currently selected endpoint may be read from (if data is waiting in the en
 407:../../LUFA/Drivers/USB/Core/AVR8/../AVR8/Endpoint_AVR8.h **** 			 *  bank and the endpoint is an OUT direction, or if the bank is not yet full if the endpoint is
 408:../../LUFA/Drivers/USB/Core/AVR8/../AVR8/Endpoint_AVR8.h **** 			 *  direction). This function will return false if an error has occurred in the endpoint, if the
 409:../../LUFA/Drivers/USB/Core/AVR8/../AVR8/Endpoint_AVR8.h **** 			 *  is an OUT direction and no packet (or an empty packet) has been received, or if the endpoint
 410:../../LUFA/Drivers/USB/Core/AVR8/../AVR8/Endpoint_AVR8.h **** 			 *  direction and the endpoint bank is full.
 411:../../LUFA/Drivers/USB/Core/AVR8/../AVR8/Endpoint_AVR8.h **** 			 *
 412:../../LUFA/Drivers/USB/Core/AVR8/../AVR8/Endpoint_AVR8.h **** 			 *  \ingroup Group_EndpointPacketManagement_AVR8
 413:../../LUFA/Drivers/USB/Core/AVR8/../AVR8/Endpoint_AVR8.h **** 			 *
 414:../../LUFA/Drivers/USB/Core/AVR8/../AVR8/Endpoint_AVR8.h **** 			 *  \return Boolean \c true if the currently selected endpoint may be read from or written to, d
 415:../../LUFA/Drivers/USB/Core/AVR8/../AVR8/Endpoint_AVR8.h **** 			 *          on its direction.
 416:../../LUFA/Drivers/USB/Core/AVR8/../AVR8/Endpoint_AVR8.h **** 			 */
 417:../../LUFA/Drivers/USB/Core/AVR8/../AVR8/Endpoint_AVR8.h **** 			static inline bool Endpoint_IsReadWriteAllowed(void) ATTR_WARN_UNUSED_RESULT ATTR_ALWAYS_INLINE;
 418:../../LUFA/Drivers/USB/Core/AVR8/../AVR8/Endpoint_AVR8.h **** 			static inline bool Endpoint_IsReadWriteAllowed(void)
 419:../../LUFA/Drivers/USB/Core/AVR8/../AVR8/Endpoint_AVR8.h **** 			{
 420:../../LUFA/Drivers/USB/Core/AVR8/../AVR8/Endpoint_AVR8.h **** 				return ((UEINTX & (1 << RWAL)) ? true : false);
 421:../../LUFA/Drivers/USB/Core/AVR8/../AVR8/Endpoint_AVR8.h **** 			}
 422:../../LUFA/Drivers/USB/Core/AVR8/../AVR8/Endpoint_AVR8.h **** 
 423:../../LUFA/Drivers/USB/Core/AVR8/../AVR8/Endpoint_AVR8.h **** 			/** Determines if the currently selected endpoint is configured.
 424:../../LUFA/Drivers/USB/Core/AVR8/../AVR8/Endpoint_AVR8.h **** 			 *
 425:../../LUFA/Drivers/USB/Core/AVR8/../AVR8/Endpoint_AVR8.h **** 			 *  \return Boolean \c true if the currently selected endpoint has been configured, \c false oth
 426:../../LUFA/Drivers/USB/Core/AVR8/../AVR8/Endpoint_AVR8.h **** 			 */
 427:../../LUFA/Drivers/USB/Core/AVR8/../AVR8/Endpoint_AVR8.h **** 			static inline bool Endpoint_IsConfigured(void) ATTR_WARN_UNUSED_RESULT ATTR_ALWAYS_INLINE;
 428:../../LUFA/Drivers/USB/Core/AVR8/../AVR8/Endpoint_AVR8.h **** 			static inline bool Endpoint_IsConfigured(void)
 429:../../LUFA/Drivers/USB/Core/AVR8/../AVR8/Endpoint_AVR8.h **** 			{
 430:../../LUFA/Drivers/USB/Core/AVR8/../AVR8/Endpoint_AVR8.h **** 				return ((UESTA0X & (1 << CFGOK)) ? true : false);
 431:../../LUFA/Drivers/USB/Core/AVR8/../AVR8/Endpoint_AVR8.h **** 			}
 432:../../LUFA/Drivers/USB/Core/AVR8/../AVR8/Endpoint_AVR8.h **** 
 433:../../LUFA/Drivers/USB/Core/AVR8/../AVR8/Endpoint_AVR8.h **** 			/** Returns a mask indicating which INTERRUPT type endpoints have interrupted - i.e. their
 434:../../LUFA/Drivers/USB/Core/AVR8/../AVR8/Endpoint_AVR8.h **** 			 *  interrupt duration has elapsed. Which endpoints have interrupted can be determined by
 435:../../LUFA/Drivers/USB/Core/AVR8/../AVR8/Endpoint_AVR8.h **** 			 *  masking the return value against <tt>(1 << <i>{Endpoint Number}</i>)</tt>.
 436:../../LUFA/Drivers/USB/Core/AVR8/../AVR8/Endpoint_AVR8.h **** 			 *
 437:../../LUFA/Drivers/USB/Core/AVR8/../AVR8/Endpoint_AVR8.h **** 			 *  \return Mask whose bits indicate which endpoints have interrupted.
 438:../../LUFA/Drivers/USB/Core/AVR8/../AVR8/Endpoint_AVR8.h **** 			 */
 439:../../LUFA/Drivers/USB/Core/AVR8/../AVR8/Endpoint_AVR8.h **** 			static inline uint8_t Endpoint_GetEndpointInterrupts(void) ATTR_WARN_UNUSED_RESULT ATTR_ALWAYS_I
 440:../../LUFA/Drivers/USB/Core/AVR8/../AVR8/Endpoint_AVR8.h **** 			static inline uint8_t Endpoint_GetEndpointInterrupts(void)
 441:../../LUFA/Drivers/USB/Core/AVR8/../AVR8/Endpoint_AVR8.h **** 			{
 442:../../LUFA/Drivers/USB/Core/AVR8/../AVR8/Endpoint_AVR8.h **** 				return UEINT;
 443:../../LUFA/Drivers/USB/Core/AVR8/../AVR8/Endpoint_AVR8.h **** 			}
 444:../../LUFA/Drivers/USB/Core/AVR8/../AVR8/Endpoint_AVR8.h **** 
 445:../../LUFA/Drivers/USB/Core/AVR8/../AVR8/Endpoint_AVR8.h **** 			/** Determines if the specified endpoint number has interrupted (valid only for INTERRUPT type
 446:../../LUFA/Drivers/USB/Core/AVR8/../AVR8/Endpoint_AVR8.h **** 			 *  endpoints).
 447:../../LUFA/Drivers/USB/Core/AVR8/../AVR8/Endpoint_AVR8.h **** 			 *
 448:../../LUFA/Drivers/USB/Core/AVR8/../AVR8/Endpoint_AVR8.h **** 			 *  \param[in] EndpointNumber  Index of the endpoint whose interrupt flag should be tested.
 449:../../LUFA/Drivers/USB/Core/AVR8/../AVR8/Endpoint_AVR8.h **** 			 *
 450:../../LUFA/Drivers/USB/Core/AVR8/../AVR8/Endpoint_AVR8.h **** 			 *  \return Boolean \c true if the specified endpoint has interrupted, \c false otherwise.
 451:../../LUFA/Drivers/USB/Core/AVR8/../AVR8/Endpoint_AVR8.h **** 			 */
 452:../../LUFA/Drivers/USB/Core/AVR8/../AVR8/Endpoint_AVR8.h **** 			static inline bool Endpoint_HasEndpointInterrupted(const uint8_t EndpointNumber) ATTR_WARN_UNUSE
 453:../../LUFA/Drivers/USB/Core/AVR8/../AVR8/Endpoint_AVR8.h **** 			static inline bool Endpoint_HasEndpointInterrupted(const uint8_t EndpointNumber)
 454:../../LUFA/Drivers/USB/Core/AVR8/../AVR8/Endpoint_AVR8.h **** 			{
 455:../../LUFA/Drivers/USB/Core/AVR8/../AVR8/Endpoint_AVR8.h **** 				return ((Endpoint_GetEndpointInterrupts() & (1 << EndpointNumber)) ? true : false);
 456:../../LUFA/Drivers/USB/Core/AVR8/../AVR8/Endpoint_AVR8.h **** 			}
 457:../../LUFA/Drivers/USB/Core/AVR8/../AVR8/Endpoint_AVR8.h **** 
 458:../../LUFA/Drivers/USB/Core/AVR8/../AVR8/Endpoint_AVR8.h **** 			/** Determines if the selected IN endpoint is ready for a new packet to be sent to the host.
 459:../../LUFA/Drivers/USB/Core/AVR8/../AVR8/Endpoint_AVR8.h **** 			 *
 460:../../LUFA/Drivers/USB/Core/AVR8/../AVR8/Endpoint_AVR8.h **** 			 *  \ingroup Group_EndpointPacketManagement_AVR8
 461:../../LUFA/Drivers/USB/Core/AVR8/../AVR8/Endpoint_AVR8.h **** 			 *
 462:../../LUFA/Drivers/USB/Core/AVR8/../AVR8/Endpoint_AVR8.h **** 			 *  \return Boolean \c true if the current endpoint is ready for an IN packet, \c false otherwis
 463:../../LUFA/Drivers/USB/Core/AVR8/../AVR8/Endpoint_AVR8.h **** 			 */
 464:../../LUFA/Drivers/USB/Core/AVR8/../AVR8/Endpoint_AVR8.h **** 			static inline bool Endpoint_IsINReady(void) ATTR_WARN_UNUSED_RESULT ATTR_ALWAYS_INLINE;
 465:../../LUFA/Drivers/USB/Core/AVR8/../AVR8/Endpoint_AVR8.h **** 			static inline bool Endpoint_IsINReady(void)
 466:../../LUFA/Drivers/USB/Core/AVR8/../AVR8/Endpoint_AVR8.h **** 			{
 467:../../LUFA/Drivers/USB/Core/AVR8/../AVR8/Endpoint_AVR8.h **** 				return ((UEINTX & (1 << TXINI)) ? true : false);
 468:../../LUFA/Drivers/USB/Core/AVR8/../AVR8/Endpoint_AVR8.h **** 			}
 469:../../LUFA/Drivers/USB/Core/AVR8/../AVR8/Endpoint_AVR8.h **** 
 470:../../LUFA/Drivers/USB/Core/AVR8/../AVR8/Endpoint_AVR8.h **** 			/** Determines if the selected OUT endpoint has received new packet from the host.
 471:../../LUFA/Drivers/USB/Core/AVR8/../AVR8/Endpoint_AVR8.h **** 			 *
 472:../../LUFA/Drivers/USB/Core/AVR8/../AVR8/Endpoint_AVR8.h **** 			 *  \ingroup Group_EndpointPacketManagement_AVR8
 473:../../LUFA/Drivers/USB/Core/AVR8/../AVR8/Endpoint_AVR8.h **** 			 *
 474:../../LUFA/Drivers/USB/Core/AVR8/../AVR8/Endpoint_AVR8.h **** 			 *  \return Boolean \c true if current endpoint is has received an OUT packet, \c false otherwis
 475:../../LUFA/Drivers/USB/Core/AVR8/../AVR8/Endpoint_AVR8.h **** 			 */
 476:../../LUFA/Drivers/USB/Core/AVR8/../AVR8/Endpoint_AVR8.h **** 			static inline bool Endpoint_IsOUTReceived(void) ATTR_WARN_UNUSED_RESULT ATTR_ALWAYS_INLINE;
 477:../../LUFA/Drivers/USB/Core/AVR8/../AVR8/Endpoint_AVR8.h **** 			static inline bool Endpoint_IsOUTReceived(void)
 478:../../LUFA/Drivers/USB/Core/AVR8/../AVR8/Endpoint_AVR8.h **** 			{
 479:../../LUFA/Drivers/USB/Core/AVR8/../AVR8/Endpoint_AVR8.h **** 				return ((UEINTX & (1 << RXOUTI)) ? true : false);
 480:../../LUFA/Drivers/USB/Core/AVR8/../AVR8/Endpoint_AVR8.h **** 			}
 481:../../LUFA/Drivers/USB/Core/AVR8/../AVR8/Endpoint_AVR8.h **** 
 482:../../LUFA/Drivers/USB/Core/AVR8/../AVR8/Endpoint_AVR8.h **** 			/** Determines if the current CONTROL type endpoint has received a SETUP packet.
 483:../../LUFA/Drivers/USB/Core/AVR8/../AVR8/Endpoint_AVR8.h **** 			 *
 484:../../LUFA/Drivers/USB/Core/AVR8/../AVR8/Endpoint_AVR8.h **** 			 *  \ingroup Group_EndpointPacketManagement_AVR8
 485:../../LUFA/Drivers/USB/Core/AVR8/../AVR8/Endpoint_AVR8.h **** 			 *
 486:../../LUFA/Drivers/USB/Core/AVR8/../AVR8/Endpoint_AVR8.h **** 			 *  \return Boolean \c true if the selected endpoint has received a SETUP packet, \c false other
 487:../../LUFA/Drivers/USB/Core/AVR8/../AVR8/Endpoint_AVR8.h **** 			 */
 488:../../LUFA/Drivers/USB/Core/AVR8/../AVR8/Endpoint_AVR8.h **** 			static inline bool Endpoint_IsSETUPReceived(void) ATTR_WARN_UNUSED_RESULT ATTR_ALWAYS_INLINE;
 489:../../LUFA/Drivers/USB/Core/AVR8/../AVR8/Endpoint_AVR8.h **** 			static inline bool Endpoint_IsSETUPReceived(void)
 490:../../LUFA/Drivers/USB/Core/AVR8/../AVR8/Endpoint_AVR8.h **** 			{
 491:../../LUFA/Drivers/USB/Core/AVR8/../AVR8/Endpoint_AVR8.h **** 				return ((UEINTX & (1 << RXSTPI)) ? true : false);
 492:../../LUFA/Drivers/USB/Core/AVR8/../AVR8/Endpoint_AVR8.h **** 			}
 493:../../LUFA/Drivers/USB/Core/AVR8/../AVR8/Endpoint_AVR8.h **** 
 494:../../LUFA/Drivers/USB/Core/AVR8/../AVR8/Endpoint_AVR8.h **** 			/** Clears a received SETUP packet on the currently selected CONTROL type endpoint, freeing up t
 495:../../LUFA/Drivers/USB/Core/AVR8/../AVR8/Endpoint_AVR8.h **** 			 *  endpoint for the next packet.
 496:../../LUFA/Drivers/USB/Core/AVR8/../AVR8/Endpoint_AVR8.h **** 			 *
 497:../../LUFA/Drivers/USB/Core/AVR8/../AVR8/Endpoint_AVR8.h **** 			 *  \ingroup Group_EndpointPacketManagement_AVR8
 498:../../LUFA/Drivers/USB/Core/AVR8/../AVR8/Endpoint_AVR8.h **** 			 *
 499:../../LUFA/Drivers/USB/Core/AVR8/../AVR8/Endpoint_AVR8.h **** 			 *  \note This is not applicable for non CONTROL type endpoints.
 500:../../LUFA/Drivers/USB/Core/AVR8/../AVR8/Endpoint_AVR8.h **** 			 */
 501:../../LUFA/Drivers/USB/Core/AVR8/../AVR8/Endpoint_AVR8.h **** 			static inline void Endpoint_ClearSETUP(void) ATTR_ALWAYS_INLINE;
 502:../../LUFA/Drivers/USB/Core/AVR8/../AVR8/Endpoint_AVR8.h **** 			static inline void Endpoint_ClearSETUP(void)
 503:../../LUFA/Drivers/USB/Core/AVR8/../AVR8/Endpoint_AVR8.h **** 			{
 504:../../LUFA/Drivers/USB/Core/AVR8/../AVR8/Endpoint_AVR8.h **** 				UEINTX &= ~(1 << RXSTPI);
 505:../../LUFA/Drivers/USB/Core/AVR8/../AVR8/Endpoint_AVR8.h **** 			}
 506:../../LUFA/Drivers/USB/Core/AVR8/../AVR8/Endpoint_AVR8.h **** 
 507:../../LUFA/Drivers/USB/Core/AVR8/../AVR8/Endpoint_AVR8.h **** 			/** Sends an IN packet to the host on the currently selected endpoint, freeing up the endpoint f
 508:../../LUFA/Drivers/USB/Core/AVR8/../AVR8/Endpoint_AVR8.h **** 			 *  next packet and switching to the alternative endpoint bank if double banked.
 509:../../LUFA/Drivers/USB/Core/AVR8/../AVR8/Endpoint_AVR8.h **** 			 *
 510:../../LUFA/Drivers/USB/Core/AVR8/../AVR8/Endpoint_AVR8.h **** 			 *  \ingroup Group_EndpointPacketManagement_AVR8
 511:../../LUFA/Drivers/USB/Core/AVR8/../AVR8/Endpoint_AVR8.h **** 			 */
 512:../../LUFA/Drivers/USB/Core/AVR8/../AVR8/Endpoint_AVR8.h **** 			static inline void Endpoint_ClearIN(void) ATTR_ALWAYS_INLINE;
 513:../../LUFA/Drivers/USB/Core/AVR8/../AVR8/Endpoint_AVR8.h **** 			static inline void Endpoint_ClearIN(void)
 514:../../LUFA/Drivers/USB/Core/AVR8/../AVR8/Endpoint_AVR8.h **** 			{
 515:../../LUFA/Drivers/USB/Core/AVR8/../AVR8/Endpoint_AVR8.h **** 				#if !defined(CONTROL_ONLY_DEVICE)
 516:../../LUFA/Drivers/USB/Core/AVR8/../AVR8/Endpoint_AVR8.h **** 					UEINTX &= ~((1 << TXINI) | (1 << FIFOCON));
 517:../../LUFA/Drivers/USB/Core/AVR8/../AVR8/Endpoint_AVR8.h **** 				#else
 518:../../LUFA/Drivers/USB/Core/AVR8/../AVR8/Endpoint_AVR8.h **** 					UEINTX &= ~(1 << TXINI);
 519:../../LUFA/Drivers/USB/Core/AVR8/../AVR8/Endpoint_AVR8.h **** 				#endif
 520:../../LUFA/Drivers/USB/Core/AVR8/../AVR8/Endpoint_AVR8.h **** 			}
 521:../../LUFA/Drivers/USB/Core/AVR8/../AVR8/Endpoint_AVR8.h **** 
 522:../../LUFA/Drivers/USB/Core/AVR8/../AVR8/Endpoint_AVR8.h **** 			/** Acknowledges an OUT packet to the host on the currently selected endpoint, freeing up the en
 523:../../LUFA/Drivers/USB/Core/AVR8/../AVR8/Endpoint_AVR8.h **** 			 *  for the next packet and switching to the alternative endpoint bank if double banked.
 524:../../LUFA/Drivers/USB/Core/AVR8/../AVR8/Endpoint_AVR8.h **** 			 *
 525:../../LUFA/Drivers/USB/Core/AVR8/../AVR8/Endpoint_AVR8.h **** 			 *  \ingroup Group_EndpointPacketManagement_AVR8
 526:../../LUFA/Drivers/USB/Core/AVR8/../AVR8/Endpoint_AVR8.h **** 			 */
 527:../../LUFA/Drivers/USB/Core/AVR8/../AVR8/Endpoint_AVR8.h **** 			static inline void Endpoint_ClearOUT(void) ATTR_ALWAYS_INLINE;
 528:../../LUFA/Drivers/USB/Core/AVR8/../AVR8/Endpoint_AVR8.h **** 			static inline void Endpoint_ClearOUT(void)
 529:../../LUFA/Drivers/USB/Core/AVR8/../AVR8/Endpoint_AVR8.h **** 			{
 530:../../LUFA/Drivers/USB/Core/AVR8/../AVR8/Endpoint_AVR8.h **** 				#if !defined(CONTROL_ONLY_DEVICE)
 531:../../LUFA/Drivers/USB/Core/AVR8/../AVR8/Endpoint_AVR8.h **** 					UEINTX &= ~((1 << RXOUTI) | (1 << FIFOCON));
 532:../../LUFA/Drivers/USB/Core/AVR8/../AVR8/Endpoint_AVR8.h **** 				#else
 533:../../LUFA/Drivers/USB/Core/AVR8/../AVR8/Endpoint_AVR8.h **** 					UEINTX &= ~(1 << RXOUTI);
 534:../../LUFA/Drivers/USB/Core/AVR8/../AVR8/Endpoint_AVR8.h **** 				#endif
 535:../../LUFA/Drivers/USB/Core/AVR8/../AVR8/Endpoint_AVR8.h **** 			}
 536:../../LUFA/Drivers/USB/Core/AVR8/../AVR8/Endpoint_AVR8.h **** 
 537:../../LUFA/Drivers/USB/Core/AVR8/../AVR8/Endpoint_AVR8.h **** 			/** Stalls the current endpoint, indicating to the host that a logical problem occurred with the
 538:../../LUFA/Drivers/USB/Core/AVR8/../AVR8/Endpoint_AVR8.h **** 			 *  indicated endpoint and that the current transfer sequence should be aborted. This provides a
 539:../../LUFA/Drivers/USB/Core/AVR8/../AVR8/Endpoint_AVR8.h **** 			 *  way for devices to indicate invalid commands to the host so that the current transfer can be
 540:../../LUFA/Drivers/USB/Core/AVR8/../AVR8/Endpoint_AVR8.h **** 			 *  aborted and the host can begin its own recovery sequence.
 541:../../LUFA/Drivers/USB/Core/AVR8/../AVR8/Endpoint_AVR8.h **** 			 *
 542:../../LUFA/Drivers/USB/Core/AVR8/../AVR8/Endpoint_AVR8.h **** 			 *  The currently selected endpoint remains stalled until either the \ref Endpoint_ClearStall() 
 543:../../LUFA/Drivers/USB/Core/AVR8/../AVR8/Endpoint_AVR8.h **** 			 *  is called, or the host issues a CLEAR FEATURE request to the device for the currently select
 544:../../LUFA/Drivers/USB/Core/AVR8/../AVR8/Endpoint_AVR8.h **** 			 *  endpoint.
 545:../../LUFA/Drivers/USB/Core/AVR8/../AVR8/Endpoint_AVR8.h **** 			 *
 546:../../LUFA/Drivers/USB/Core/AVR8/../AVR8/Endpoint_AVR8.h **** 			 *  \ingroup Group_EndpointPacketManagement_AVR8
 547:../../LUFA/Drivers/USB/Core/AVR8/../AVR8/Endpoint_AVR8.h **** 			 */
 548:../../LUFA/Drivers/USB/Core/AVR8/../AVR8/Endpoint_AVR8.h **** 			static inline void Endpoint_StallTransaction(void) ATTR_ALWAYS_INLINE;
 549:../../LUFA/Drivers/USB/Core/AVR8/../AVR8/Endpoint_AVR8.h **** 			static inline void Endpoint_StallTransaction(void)
 550:../../LUFA/Drivers/USB/Core/AVR8/../AVR8/Endpoint_AVR8.h **** 			{
 551:../../LUFA/Drivers/USB/Core/AVR8/../AVR8/Endpoint_AVR8.h **** 				UECONX |= (1 << STALLRQ);
 552:../../LUFA/Drivers/USB/Core/AVR8/../AVR8/Endpoint_AVR8.h **** 			}
 553:../../LUFA/Drivers/USB/Core/AVR8/../AVR8/Endpoint_AVR8.h **** 
 554:../../LUFA/Drivers/USB/Core/AVR8/../AVR8/Endpoint_AVR8.h **** 			/** Clears the STALL condition on the currently selected endpoint.
 555:../../LUFA/Drivers/USB/Core/AVR8/../AVR8/Endpoint_AVR8.h **** 			 *
 556:../../LUFA/Drivers/USB/Core/AVR8/../AVR8/Endpoint_AVR8.h **** 			 *  \ingroup Group_EndpointPacketManagement_AVR8
 557:../../LUFA/Drivers/USB/Core/AVR8/../AVR8/Endpoint_AVR8.h **** 			 */
 558:../../LUFA/Drivers/USB/Core/AVR8/../AVR8/Endpoint_AVR8.h **** 			static inline void Endpoint_ClearStall(void) ATTR_ALWAYS_INLINE;
 559:../../LUFA/Drivers/USB/Core/AVR8/../AVR8/Endpoint_AVR8.h **** 			static inline void Endpoint_ClearStall(void)
 560:../../LUFA/Drivers/USB/Core/AVR8/../AVR8/Endpoint_AVR8.h **** 			{
 561:../../LUFA/Drivers/USB/Core/AVR8/../AVR8/Endpoint_AVR8.h **** 				UECONX |= (1 << STALLRQC);
 562:../../LUFA/Drivers/USB/Core/AVR8/../AVR8/Endpoint_AVR8.h **** 			}
 563:../../LUFA/Drivers/USB/Core/AVR8/../AVR8/Endpoint_AVR8.h **** 
 564:../../LUFA/Drivers/USB/Core/AVR8/../AVR8/Endpoint_AVR8.h **** 			/** Determines if the currently selected endpoint is stalled, false otherwise.
 565:../../LUFA/Drivers/USB/Core/AVR8/../AVR8/Endpoint_AVR8.h **** 			 *
 566:../../LUFA/Drivers/USB/Core/AVR8/../AVR8/Endpoint_AVR8.h **** 			 *  \ingroup Group_EndpointPacketManagement_AVR8
 567:../../LUFA/Drivers/USB/Core/AVR8/../AVR8/Endpoint_AVR8.h **** 			 *
 568:../../LUFA/Drivers/USB/Core/AVR8/../AVR8/Endpoint_AVR8.h **** 			 *  \return Boolean \c true if the currently selected endpoint is stalled, \c false otherwise.
 569:../../LUFA/Drivers/USB/Core/AVR8/../AVR8/Endpoint_AVR8.h **** 			 */
 570:../../LUFA/Drivers/USB/Core/AVR8/../AVR8/Endpoint_AVR8.h **** 			static inline bool Endpoint_IsStalled(void) ATTR_WARN_UNUSED_RESULT ATTR_ALWAYS_INLINE;
 571:../../LUFA/Drivers/USB/Core/AVR8/../AVR8/Endpoint_AVR8.h **** 			static inline bool Endpoint_IsStalled(void)
 572:../../LUFA/Drivers/USB/Core/AVR8/../AVR8/Endpoint_AVR8.h **** 			{
 573:../../LUFA/Drivers/USB/Core/AVR8/../AVR8/Endpoint_AVR8.h **** 				return ((UECONX & (1 << STALLRQ)) ? true : false);
 574:../../LUFA/Drivers/USB/Core/AVR8/../AVR8/Endpoint_AVR8.h **** 			}
 575:../../LUFA/Drivers/USB/Core/AVR8/../AVR8/Endpoint_AVR8.h **** 
 576:../../LUFA/Drivers/USB/Core/AVR8/../AVR8/Endpoint_AVR8.h **** 			/** Resets the data toggle of the currently selected endpoint. */
 577:../../LUFA/Drivers/USB/Core/AVR8/../AVR8/Endpoint_AVR8.h **** 			static inline void Endpoint_ResetDataToggle(void) ATTR_ALWAYS_INLINE;
 578:../../LUFA/Drivers/USB/Core/AVR8/../AVR8/Endpoint_AVR8.h **** 			static inline void Endpoint_ResetDataToggle(void)
 579:../../LUFA/Drivers/USB/Core/AVR8/../AVR8/Endpoint_AVR8.h **** 			{
 580:../../LUFA/Drivers/USB/Core/AVR8/../AVR8/Endpoint_AVR8.h **** 				UECONX |= (1 << RSTDT);
 581:../../LUFA/Drivers/USB/Core/AVR8/../AVR8/Endpoint_AVR8.h **** 			}
 582:../../LUFA/Drivers/USB/Core/AVR8/../AVR8/Endpoint_AVR8.h **** 
 583:../../LUFA/Drivers/USB/Core/AVR8/../AVR8/Endpoint_AVR8.h **** 			/** Determines the currently selected endpoint's direction.
 584:../../LUFA/Drivers/USB/Core/AVR8/../AVR8/Endpoint_AVR8.h **** 			 *
 585:../../LUFA/Drivers/USB/Core/AVR8/../AVR8/Endpoint_AVR8.h **** 			 *  \return The currently selected endpoint's direction, as a \c ENDPOINT_DIR_* mask.
 586:../../LUFA/Drivers/USB/Core/AVR8/../AVR8/Endpoint_AVR8.h **** 			 */
 587:../../LUFA/Drivers/USB/Core/AVR8/../AVR8/Endpoint_AVR8.h **** 			static inline uint8_t Endpoint_GetEndpointDirection(void) ATTR_WARN_UNUSED_RESULT ATTR_ALWAYS_IN
 588:../../LUFA/Drivers/USB/Core/AVR8/../AVR8/Endpoint_AVR8.h **** 			static inline uint8_t Endpoint_GetEndpointDirection(void)
 589:../../LUFA/Drivers/USB/Core/AVR8/../AVR8/Endpoint_AVR8.h **** 			{
 590:../../LUFA/Drivers/USB/Core/AVR8/../AVR8/Endpoint_AVR8.h **** 				return (UECFG0X & (1 << EPDIR)) ? ENDPOINT_DIR_IN : ENDPOINT_DIR_OUT;
 591:../../LUFA/Drivers/USB/Core/AVR8/../AVR8/Endpoint_AVR8.h **** 			}
 592:../../LUFA/Drivers/USB/Core/AVR8/../AVR8/Endpoint_AVR8.h **** 
 593:../../LUFA/Drivers/USB/Core/AVR8/../AVR8/Endpoint_AVR8.h **** 			/** Sets the direction of the currently selected endpoint.
 594:../../LUFA/Drivers/USB/Core/AVR8/../AVR8/Endpoint_AVR8.h **** 			 *
 595:../../LUFA/Drivers/USB/Core/AVR8/../AVR8/Endpoint_AVR8.h **** 			 *  \param[in] DirectionMask  New endpoint direction, as a \c ENDPOINT_DIR_* mask.
 596:../../LUFA/Drivers/USB/Core/AVR8/../AVR8/Endpoint_AVR8.h **** 			 */
 597:../../LUFA/Drivers/USB/Core/AVR8/../AVR8/Endpoint_AVR8.h **** 			static inline void Endpoint_SetEndpointDirection(const uint8_t DirectionMask) ATTR_ALWAYS_INLINE
 598:../../LUFA/Drivers/USB/Core/AVR8/../AVR8/Endpoint_AVR8.h **** 			static inline void Endpoint_SetEndpointDirection(const uint8_t DirectionMask)
 599:../../LUFA/Drivers/USB/Core/AVR8/../AVR8/Endpoint_AVR8.h **** 			{
 600:../../LUFA/Drivers/USB/Core/AVR8/../AVR8/Endpoint_AVR8.h **** 				UECFG0X = ((UECFG0X & ~(1 << EPDIR)) | (DirectionMask ? (1 << EPDIR) : 0));
 601:../../LUFA/Drivers/USB/Core/AVR8/../AVR8/Endpoint_AVR8.h **** 			}
 602:../../LUFA/Drivers/USB/Core/AVR8/../AVR8/Endpoint_AVR8.h **** 
 603:../../LUFA/Drivers/USB/Core/AVR8/../AVR8/Endpoint_AVR8.h **** 			/** Reads one byte from the currently selected endpoint's bank, for OUT direction endpoints.
 604:../../LUFA/Drivers/USB/Core/AVR8/../AVR8/Endpoint_AVR8.h **** 			 *
 605:../../LUFA/Drivers/USB/Core/AVR8/../AVR8/Endpoint_AVR8.h **** 			 *  \ingroup Group_EndpointPrimitiveRW_AVR8
 606:../../LUFA/Drivers/USB/Core/AVR8/../AVR8/Endpoint_AVR8.h **** 			 *
 607:../../LUFA/Drivers/USB/Core/AVR8/../AVR8/Endpoint_AVR8.h **** 			 *  \return Next byte in the currently selected endpoint's FIFO buffer.
 608:../../LUFA/Drivers/USB/Core/AVR8/../AVR8/Endpoint_AVR8.h **** 			 */
 609:../../LUFA/Drivers/USB/Core/AVR8/../AVR8/Endpoint_AVR8.h **** 			static inline uint8_t Endpoint_Read_8(void) ATTR_WARN_UNUSED_RESULT ATTR_ALWAYS_INLINE;
 610:../../LUFA/Drivers/USB/Core/AVR8/../AVR8/Endpoint_AVR8.h **** 			static inline uint8_t Endpoint_Read_8(void)
 611:../../LUFA/Drivers/USB/Core/AVR8/../AVR8/Endpoint_AVR8.h **** 			{
 612:../../LUFA/Drivers/USB/Core/AVR8/../AVR8/Endpoint_AVR8.h **** 				return UEDATX;
 613:../../LUFA/Drivers/USB/Core/AVR8/../AVR8/Endpoint_AVR8.h **** 			}
 614:../../LUFA/Drivers/USB/Core/AVR8/../AVR8/Endpoint_AVR8.h **** 
 615:../../LUFA/Drivers/USB/Core/AVR8/../AVR8/Endpoint_AVR8.h **** 			/** Writes one byte to the currently selected endpoint's bank, for IN direction endpoints.
 616:../../LUFA/Drivers/USB/Core/AVR8/../AVR8/Endpoint_AVR8.h **** 			 *
 617:../../LUFA/Drivers/USB/Core/AVR8/../AVR8/Endpoint_AVR8.h **** 			 *  \ingroup Group_EndpointPrimitiveRW_AVR8
 618:../../LUFA/Drivers/USB/Core/AVR8/../AVR8/Endpoint_AVR8.h **** 			 *
 619:../../LUFA/Drivers/USB/Core/AVR8/../AVR8/Endpoint_AVR8.h **** 			 *  \param[in] Data  Data to write into the the currently selected endpoint's FIFO buffer.
 620:../../LUFA/Drivers/USB/Core/AVR8/../AVR8/Endpoint_AVR8.h **** 			 */
 621:../../LUFA/Drivers/USB/Core/AVR8/../AVR8/Endpoint_AVR8.h **** 			static inline void Endpoint_Write_8(const uint8_t Data) ATTR_ALWAYS_INLINE;
 622:../../LUFA/Drivers/USB/Core/AVR8/../AVR8/Endpoint_AVR8.h **** 			static inline void Endpoint_Write_8(const uint8_t Data)
 623:../../LUFA/Drivers/USB/Core/AVR8/../AVR8/Endpoint_AVR8.h **** 			{
 624:../../LUFA/Drivers/USB/Core/AVR8/../AVR8/Endpoint_AVR8.h **** 				UEDATX = Data;
 256               		.loc 3 624 0
 257 004a 1092 F100 		sts 241,__zero_reg__
 258               	.LVL24:
 259               	.LBE63:
 260               	.LBE62:
 261               	.LBB64:
 262               	.LBB65:
 263 004e 1092 F100 		sts 241,__zero_reg__
 264               	.LVL25:
 265               	.LBE65:
 266               	.LBE64:
 267               	.LBB66:
 268               	.LBB67:
 269 0052 1092 F100 		sts 241,__zero_reg__
 270               	.LVL26:
 271               	.LBE67:
 272               	.LBE66:
 273               	.LBB68:
 274               	.LBB69:
 275 0056 1092 F100 		sts 241,__zero_reg__
 276               	.LVL27:
 277               	.LBE69:
 278               	.LBE68:
 279               	.LBB70:
 280               	.LBB71:
 516:../../LUFA/Drivers/USB/Core/AVR8/../AVR8/Endpoint_AVR8.h **** 				#else
 281               		.loc 3 516 0
 282 005a 8091 E800 		lds r24,232
 283 005e 8E77      		andi r24,lo8(126)
 284 0060 8093 E800 		sts 232,r24
 285               	.LBE71:
 286               	.LBE70:
 321:Lib/SCSI.c    **** 
 322:Lib/SCSI.c    **** /** Command processing for an issued SCSI MODE SENSE (6) command. This command returns various info
 323:Lib/SCSI.c    ****  *  the SCSI device, as well as the device's Write Protect status.
 324:Lib/SCSI.c    ****  *
 325:Lib/SCSI.c    ****  *  \param[in] MSInterfaceInfo  Pointer to the Mass Storage class interface structure that the comm
 326:Lib/SCSI.c    ****  *
 327:Lib/SCSI.c    ****  *  \return Boolean true if the command completed successfully, false otherwise.
 328:Lib/SCSI.c    ****  */
 329:Lib/SCSI.c    **** static bool SCSI_Command_ModeSense_6(USB_ClassInfo_MS_Device_t* const MSInterfaceInfo)
 330:Lib/SCSI.c    **** {
 331:Lib/SCSI.c    **** 	/* Send an empty header response with the Write Protect flag status */
 332:Lib/SCSI.c    **** 	Endpoint_Write_8(0x00);
 333:Lib/SCSI.c    **** 	Endpoint_Write_8(0x00);
 334:Lib/SCSI.c    **** 	Endpoint_Write_8(DISK_READ_ONLY ? 0x80 : 0x00);
 335:Lib/SCSI.c    **** 	Endpoint_Write_8(0x00);
 336:Lib/SCSI.c    **** 	Endpoint_ClearIN();
 337:Lib/SCSI.c    **** 
 338:Lib/SCSI.c    **** 	/* Update the bytes transferred counter and succeed the command */
 339:Lib/SCSI.c    **** 	MSInterfaceInfo->State.CommandBlock.DataTransferLength -= 4;
 287               		.loc 1 339 0
 288 0064 F801      		movw r30,r16
 289 0066 8289      		ldd r24,Z+18
 290 0068 9389      		ldd r25,Z+19
 291 006a A489      		ldd r26,Z+20
 292 006c B589      		ldd r27,Z+21
 293 006e 0497      		sbiw r24,4
 294 0070 A109      		sbc r26,__zero_reg__
 295 0072 B109      		sbc r27,__zero_reg__
 296 0074 00C0      		rjmp .L43
 297               	.LVL28:
 298               	.L10:
 299               	.LBE61:
 300               	.LBE60:
  96:Lib/SCSI.c    **** 	{
 301               		.loc 1 96 0
 302 0076 8832      		cpi r24,lo8(40)
 303 0078 01F4      		brne .+2
 304 007a 00C0      		rjmp .L16
 305 007c 00F4      		brsh .L17
 306 007e 8E31      		cpi r24,lo8(30)
 307 0080 01F4      		brne .+2
 308 0082 00C0      		rjmp .L13
 309 0084 8532      		cpi r24,lo8(37)
 310 0086 01F0      		breq .+2
 311 0088 00C0      		rjmp .L8
 312               	.LVL29:
 313               	.LBB73:
 314               	.LBB74:
 216:Lib/SCSI.c    **** 	uint32_t MediaBlockSize        = VIRTUAL_MEMORY_BLOCK_SIZE;
 315               		.loc 1 216 0
 316 008a 8FEF      		ldi r24,lo8(-1)
 317 008c 9FE7      		ldi r25,lo8(127)
 318 008e A0E0      		ldi r26,0
 319 0090 B0E0      		ldi r27,0
 320 0092 8D83      		std Y+5,r24
 321 0094 9E83      		std Y+6,r25
 322 0096 AF83      		std Y+7,r26
 323 0098 B887      		std Y+8,r27
 217:Lib/SCSI.c    **** 
 324               		.loc 1 217 0
 325 009a 80E0      		ldi r24,0
 326 009c 92E0      		ldi r25,lo8(2)
 327 009e A0E0      		ldi r26,0
 328 00a0 B0E0      		ldi r27,0
 329 00a2 8983      		std Y+1,r24
 330 00a4 9A83      		std Y+2,r25
 331 00a6 AB83      		std Y+3,r26
 332 00a8 BC83      		std Y+4,r27
 219:Lib/SCSI.c    **** 	Endpoint_Write_Stream_BE(&MediaBlockSize, sizeof(MediaBlockSize), NULL);
 333               		.loc 1 219 0
 334 00aa 40E0      		ldi r20,0
 335 00ac 50E0      		ldi r21,0
 336 00ae 64E0      		ldi r22,lo8(4)
 337 00b0 70E0      		ldi r23,0
 338 00b2 CE01      		movw r24,r28
 339 00b4 0596      		adiw r24,5
 340 00b6 0E94 0000 		call Endpoint_Write_Stream_BE
 341               	.LVL30:
 220:Lib/SCSI.c    **** 	Endpoint_ClearIN();
 342               		.loc 1 220 0
 343 00ba 40E0      		ldi r20,0
 344 00bc 50E0      		ldi r21,0
 345 00be 64E0      		ldi r22,lo8(4)
 346 00c0 70E0      		ldi r23,0
 347 00c2 CE01      		movw r24,r28
 348 00c4 0196      		adiw r24,1
 349 00c6 0E94 0000 		call Endpoint_Write_Stream_BE
 350               	.LVL31:
 351               	.LBB75:
 352               	.LBB76:
 516:../../LUFA/Drivers/USB/Core/AVR8/../AVR8/Endpoint_AVR8.h **** 				#else
 353               		.loc 3 516 0
 354 00ca 8091 E800 		lds r24,232
 355 00ce 8E77      		andi r24,lo8(126)
 356 00d0 8093 E800 		sts 232,r24
 357               	.LBE76:
 358               	.LBE75:
 224:Lib/SCSI.c    **** 
 359               		.loc 1 224 0
 360 00d4 F801      		movw r30,r16
 361 00d6 8289      		ldd r24,Z+18
 362 00d8 9389      		ldd r25,Z+19
 363 00da A489      		ldd r26,Z+20
 364 00dc B589      		ldd r27,Z+21
 365 00de 0897      		sbiw r24,8
 366 00e0 A109      		sbc r26,__zero_reg__
 367 00e2 B109      		sbc r27,__zero_reg__
 368 00e4 00C0      		rjmp .L43
 369               	.LVL32:
 370               	.L17:
 371               	.LBE74:
 372               	.LBE73:
  96:Lib/SCSI.c    **** 	{
 373               		.loc 1 96 0
 374 00e6 8A32      		cpi r24,lo8(42)
 375 00e8 01F4      		brne .+2
 376 00ea 00C0      		rjmp .L19
 377 00ec 8F32      		cpi r24,lo8(47)
 378 00ee 01F4      		brne .+2
 379 00f0 00C0      		rjmp .L13
 380 00f2 00C0      		rjmp .L8
 381               	.L14:
 382               	.LVL33:
 383               	.LBB77:
 384               	.LBB78:
 385               	.LBB79:
 386               	.LBB80:
 387               	.LBB81:
 388               	.LBB82:
 410:../../LUFA/Drivers/USB/../../Common/Endianness.h **** 
 389               		.loc 2 410 0
 390 00f4 F801      		movw r30,r16
 391 00f6 E48C      		ldd r14,Z+28
 392 00f8 F58C      		ldd r15,Z+29
 393               	.LVL34:
 412:../../LUFA/Drivers/USB/../../Common/Endianness.h **** 				Data.Bytes[0] = Data.Bytes[1];
 394               		.loc 2 412 0
 395 00fa 8E2D      		mov r24,r14
 396               	.LVL35:
 413:../../LUFA/Drivers/USB/../../Common/Endianness.h **** 				Data.Bytes[1] = Temp;
 397               		.loc 2 413 0
 398 00fc EF2C      		mov r14,r15
 399               	.LVL36:
 414:../../LUFA/Drivers/USB/../../Common/Endianness.h **** 
 400               		.loc 2 414 0
 401 00fe F82E      		mov r15,r24
 402               	.LVL37:
 403               	.LBE82:
 404               	.LBE81:
 405               	.LBE80:
 406               	.LBE79:
 160:Lib/SCSI.c    **** 	     MSInterfaceInfo->State.CommandBlock.SCSICommandData[2])
 407               		.loc 1 160 0
 408 0100 828D      		ldd r24,Z+26
 409 0102 8370      		andi r24,lo8(3)
 410 0104 01F4      		brne .L20
 411 0106 838D      		ldd r24,Z+27
 412 0108 8823      		tst r24
 413 010a 01F0      		breq .L21
 414               	.LVL38:
 415               	.L20:
 164:Lib/SCSI.c    **** 		               SCSI_ASENSE_INVALID_FIELD_IN_CDB,
 416               		.loc 1 164 0
 417 010c 8091 0000 		lds r24,SenseData+2
 418 0110 807F      		andi r24,lo8(-16)
 419 0112 8560      		ori r24,lo8(5)
 420 0114 8093 0000 		sts SenseData+2,r24
 421 0118 84E2      		ldi r24,lo8(36)
 422 011a 00C0      		rjmp .L45
 423               	.LVL39:
 424               	.L21:
 157:Lib/SCSI.c    **** 
 425               		.loc 1 157 0
 426 011c 6701      		movw r12,r14
 427 011e F5E2      		ldi r31,37
 428 0120 EF16      		cp r14,r31
 429 0122 F104      		cpc r15,__zero_reg__
 430 0124 00F0      		brlo .L23
 431               	.LVL40:
 432 0126 94E2      		ldi r25,lo8(36)
 433 0128 C92E      		mov r12,r25
 434 012a D12C      		mov r13,__zero_reg__
 435               	.LVL41:
 436               	.L23:
 171:Lib/SCSI.c    **** 
 437               		.loc 1 171 0
 438 012c 40E0      		ldi r20,0
 439 012e 50E0      		ldi r21,0
 440 0130 B601      		movw r22,r12
 441 0132 80E0      		ldi r24,lo8(InquiryData)
 442 0134 90E0      		ldi r25,hi8(InquiryData)
 443 0136 0E94 0000 		call Endpoint_Write_Stream_LE
 444               	.LVL42:
 174:Lib/SCSI.c    **** 
 445               		.loc 1 174 0
 446 013a 60E0      		ldi r22,0
 447 013c 70E0      		ldi r23,0
 448 013e C701      		movw r24,r14
 449 0140 8C19      		sub r24,r12
 450 0142 9D09      		sbc r25,r13
 451 0144 0E94 0000 		call Endpoint_Null_Stream
 452               	.LVL43:
 453               	.LBB83:
 454               	.LBB84:
 516:../../LUFA/Drivers/USB/Core/AVR8/../AVR8/Endpoint_AVR8.h **** 				#else
 455               		.loc 3 516 0
 456 0148 8091 E800 		lds r24,232
 457 014c 8E77      		andi r24,lo8(126)
 458 014e 8093 E800 		sts 232,r24
 459               	.LBE84:
 460               	.LBE83:
 180:Lib/SCSI.c    **** 
 461               		.loc 1 180 0
 462 0152 F801      		movw r30,r16
 463 0154 8289      		ldd r24,Z+18
 464 0156 9389      		ldd r25,Z+19
 465 0158 A489      		ldd r26,Z+20
 466 015a B589      		ldd r27,Z+21
 467 015c 8C19      		sub r24,r12
 468 015e 9D09      		sbc r25,r13
 469 0160 A109      		sbc r26,__zero_reg__
 470 0162 B109      		sbc r27,__zero_reg__
 471 0164 00C0      		rjmp .L43
 472               	.LVL44:
 473               	.L11:
 474               	.LBE78:
 475               	.LBE77:
 476               	.LBB85:
 477               	.LBB86:
 194:Lib/SCSI.c    **** 	uint8_t  BytesTransferred = MIN(AllocationLength, sizeof(SenseData));
 478               		.loc 1 194 0
 479 0166 F801      		movw r30,r16
 480 0168 F58C      		ldd r15,Z+29
 481               	.LVL45:
 195:Lib/SCSI.c    **** 
 482               		.loc 1 195 0
 483 016a EF2C      		mov r14,r15
 484 016c F2E1      		ldi r31,lo8(18)
 485 016e FF15      		cp r31,r15
 486 0170 00F4      		brsh .L25
 487 0172 82E1      		ldi r24,lo8(18)
 488 0174 E82E      		mov r14,r24
 489               	.L25:
 490               	.LVL46:
 197:Lib/SCSI.c    **** 	Endpoint_Null_Stream((AllocationLength - BytesTransferred), NULL);
 491               		.loc 1 197 0
 492 0176 CE2C      		mov r12,r14
 493 0178 D12C      		mov r13,__zero_reg__
 494 017a 40E0      		ldi r20,0
 495 017c 50E0      		ldi r21,0
 496 017e B601      		movw r22,r12
 497 0180 80E0      		ldi r24,lo8(SenseData)
 498 0182 90E0      		ldi r25,hi8(SenseData)
 499 0184 0E94 0000 		call Endpoint_Write_Stream_LE
 500               	.LVL47:
 198:Lib/SCSI.c    **** 	Endpoint_ClearIN();
 501               		.loc 1 198 0
 502 0188 8F2D      		mov r24,r15
 503 018a 90E0      		ldi r25,0
 504 018c 60E0      		ldi r22,0
 505 018e 70E0      		ldi r23,0
 506 0190 8C19      		sub r24,r12
 507 0192 9D09      		sbc r25,r13
 508 0194 0E94 0000 		call Endpoint_Null_Stream
 509               	.LVL48:
 510               	.LBB87:
 511               	.LBB88:
 516:../../LUFA/Drivers/USB/Core/AVR8/../AVR8/Endpoint_AVR8.h **** 				#else
 512               		.loc 3 516 0
 513 0198 8091 E800 		lds r24,232
 514 019c 8E77      		andi r24,lo8(126)
 515 019e 8093 E800 		sts 232,r24
 516               	.LBE88:
 517               	.LBE87:
 202:Lib/SCSI.c    **** 
 518               		.loc 1 202 0
 519 01a2 F801      		movw r30,r16
 520 01a4 8289      		ldd r24,Z+18
 521 01a6 9389      		ldd r25,Z+19
 522 01a8 A489      		ldd r26,Z+20
 523 01aa B589      		ldd r27,Z+21
 524 01ac 8E19      		sub r24,r14
 525 01ae 9109      		sbc r25,__zero_reg__
 526 01b0 A109      		sbc r26,__zero_reg__
 527 01b2 B109      		sbc r27,__zero_reg__
 528 01b4 00C0      		rjmp .L43
 529               	.LVL49:
 530               	.L9:
 531               	.LBE86:
 532               	.LBE85:
 533               	.LBB89:
 534               	.LBB90:
 240:Lib/SCSI.c    **** 	{
 535               		.loc 1 240 0
 536 01b6 F801      		movw r30,r16
 537 01b8 828D      		ldd r24,Z+26
 538 01ba 82FF      		sbrs r24,2
 539 01bc 00C0      		rjmp .L20
 251:Lib/SCSI.c    **** 	{
 540               		.loc 1 251 0
 541 01be 0E94 0000 		call DataflashManager_CheckDataflashOperation
 542               	.LVL50:
 543 01c2 8111      		cpse r24,__zero_reg__
 544 01c4 00C0      		rjmp .L13
 254:Lib/SCSI.c    **** 		               SCSI_ASENSE_NO_ADDITIONAL_INFORMATION,
 545               		.loc 1 254 0
 546 01c6 8091 0000 		lds r24,SenseData+2
 547 01ca 807F      		andi r24,lo8(-16)
 548 01cc 8460      		ori r24,lo8(4)
 549 01ce 8093 0000 		sts SenseData+2,r24
 550 01d2 1092 0000 		sts SenseData+12,__zero_reg__
 551               	.LVL51:
 552               	.L44:
 553 01d6 1092 0000 		sts SenseData+13,__zero_reg__
 554 01da 00C0      		rjmp .L22
 555               	.LVL52:
 556               	.L19:
 557               	.LBE90:
 558               	.LBE89:
 111:Lib/SCSI.c    **** 			break;
 559               		.loc 1 111 0
 560 01dc 60E0      		ldi r22,0
 561 01de 00C0      		rjmp .L42
 562               	.L16:
 114:Lib/SCSI.c    **** 			break;
 563               		.loc 1 114 0
 564 01e0 61E0      		ldi r22,lo8(1)
 565               	.L42:
 566 01e2 C801      		movw r24,r16
 567 01e4 0E94 0000 		call SCSI_Command_ReadWrite_10
 568               	.LVL53:
 135:Lib/SCSI.c    **** 	{
 569               		.loc 1 135 0
 570 01e8 8111      		cpse r24,__zero_reg__
 571 01ea 00C0      		rjmp .L24
 572 01ec 00C0      		rjmp .L22
 573               	.LVL54:
 574               	.L43:
 575               	.LBB91:
 576               	.LBB72:
 577               		.loc 1 339 0
 578 01ee 828B      		std Z+18,r24
 579 01f0 938B      		std Z+19,r25
 580 01f2 A48B      		std Z+20,r26
 581 01f4 B58B      		std Z+21,r27
 582               	.LVL55:
 583               	.LBE72:
 584               	.LBE91:
 118:Lib/SCSI.c    **** 		case SCSI_CMD_TEST_UNIT_READY:
 585               		.loc 1 118 0
 586 01f6 00C0      		rjmp .L24
 587               	.LVL56:
 588               	.L13:
 124:Lib/SCSI.c    **** 			break;
 589               		.loc 1 124 0
 590 01f8 F801      		movw r30,r16
 591 01fa 128A      		std Z+18,__zero_reg__
 592 01fc 138A      		std Z+19,__zero_reg__
 593 01fe 148A      		std Z+20,__zero_reg__
 594 0200 158A      		std Z+21,__zero_reg__
 125:Lib/SCSI.c    **** 		default:
 595               		.loc 1 125 0
 596 0202 00C0      		rjmp .L24
 597               	.LVL57:
 598               	.L8:
 128:Lib/SCSI.c    **** 		                   SCSI_ASENSE_INVALID_COMMAND,
 599               		.loc 1 128 0
 600 0204 8091 0000 		lds r24,SenseData+2
 601 0208 807F      		andi r24,lo8(-16)
 602 020a 8560      		ori r24,lo8(5)
 603 020c 8093 0000 		sts SenseData+2,r24
 604 0210 80E2      		ldi r24,lo8(32)
 605               	.LVL58:
 606               	.L45:
 607 0212 8093 0000 		sts SenseData+12,r24
 608 0216 00C0      		rjmp .L44
 609               	.LVL59:
 610               	.L24:
 137:Lib/SCSI.c    **** 		               SCSI_ASENSE_NO_ADDITIONAL_INFORMATION,
 611               		.loc 1 137 0
 612 0218 8091 0000 		lds r24,SenseData+2
 613 021c 807F      		andi r24,lo8(-16)
 614 021e 8093 0000 		sts SenseData+2,r24
 615 0222 1092 0000 		sts SenseData+12,__zero_reg__
 616 0226 1092 0000 		sts SenseData+13,__zero_reg__
 141:Lib/SCSI.c    **** 	}
 617               		.loc 1 141 0
 618 022a 81E0      		ldi r24,lo8(1)
 619 022c 00C0      		rjmp .L41
 620               	.L22:
 621               	.LVL60:
 144:Lib/SCSI.c    **** }
 622               		.loc 1 144 0
 623 022e 80E0      		ldi r24,0
 624               	.LVL61:
 625               	.L41:
 626               	/* epilogue start */
 145:Lib/SCSI.c    **** 
 627               		.loc 1 145 0
 628 0230 2896      		adiw r28,8
 629 0232 0FB6      		in __tmp_reg__,__SREG__
 630 0234 F894      		cli
 631 0236 DEBF      		out __SP_H__,r29
 632 0238 0FBE      		out __SREG__,__tmp_reg__
 633 023a CDBF      		out __SP_L__,r28
 634 023c DF91      		pop r29
 635 023e CF91      		pop r28
 636 0240 1F91      		pop r17
 637 0242 0F91      		pop r16
 638               	.LVL62:
 639 0244 FF90      		pop r15
 640 0246 EF90      		pop r14
 641               	.LVL63:
 642 0248 DF90      		pop r13
 643 024a CF90      		pop r12
 644 024c 0895      		ret
 645               		.cfi_endproc
 646               	.LFE205:
 648               		.data
 651               	SenseData:
 652 0000 70        		.byte	112
 653 0001 0000 0000 		.zero	6
 653      0000 
 654 0007 0A        		.byte	10
 655 0008 0000 0000 		.zero	10
 655      0000 0000 
 655      0000 
 656               		.section	.rodata
 659               	InquiryData:
 660 0000 00        		.byte	0
 661 0001 80        		.byte	128
 662 0002 00        		.byte	0
 663 0003 02        		.byte	2
 664 0004 1F        		.byte	31
 665 0005 0000      		.zero	2
 666 0007 00        		.byte	0
 667 0008 4C55 4641 		.string	"LUFA"
 667      00
 668 000d 0000 00   		.zero	3
 669 0010 4461 7461 		.string	"Dataflash Disk"
 669      666C 6173 
 669      6820 4469 
 669      736B 00
 670 001f 00        		.zero	1
 671 0020 30        		.byte	48
 672 0021 2E        		.byte	46
 673 0022 30        		.byte	48
 674 0023 30        		.byte	48
 675               		.text
 676               	.Letext0:
 677               		.file 4 "/usr/lib/avr/include/stdint.h"
 678               		.file 5 "../../LUFA/Drivers/USB/Class/Device/../Common/MassStorage.h"
 679               		.file 6 "../../LUFA/Drivers/USB/Class/Device/MassStorage.h"
 680               		.file 7 "Lib/DataflashManager.h"
 681               		.file 8 "../../LUFA/Drivers/USB/Core/AVR8/../AVR8/EndpointStream_AVR8.h"
 682               		.file 9 "../../LUFA/Drivers/USB/Core/USBTask.h"