   1               		.file	"DHCP.c"
   2               	__SP_H__ = 0x3e
   3               	__SP_L__ = 0x3d
   4               	__SREG__ = 0x3f
   5               	__RAMPZ__ = 0x3b
   6               	__tmp_reg__ = 0
   7               	__zero_reg__ = 1
   8               		.text
   9               	.Ltext0:
  10               		.cfi_sections	.debug_frame
  11               		.section	.text.DHCP_ProcessDHCPPacket,"ax",@progbits
  12               	.global	DHCP_ProcessDHCPPacket
  14               	DHCP_ProcessDHCPPacket:
  15               	.LFB104:
  16               		.file 1 "Lib/DHCP.c"
   1:Lib/DHCP.c    **** /*
   2:Lib/DHCP.c    ****              LUFA Library
   3:Lib/DHCP.c    ****      Copyright (C) Dean Camera, 2011.
   4:Lib/DHCP.c    **** 
   5:Lib/DHCP.c    ****   dean [at] fourwalledcubicle [dot] com
   6:Lib/DHCP.c    ****            www.lufa-lib.org
   7:Lib/DHCP.c    **** */
   8:Lib/DHCP.c    **** 
   9:Lib/DHCP.c    **** /*
  10:Lib/DHCP.c    ****   Copyright 2011  Dean Camera (dean [at] fourwalledcubicle [dot] com)
  11:Lib/DHCP.c    **** 
  12:Lib/DHCP.c    ****   Permission to use, copy, modify, distribute, and sell this
  13:Lib/DHCP.c    ****   software and its documentation for any purpose is hereby granted
  14:Lib/DHCP.c    ****   without fee, provided that the above copyright notice appear in
  15:Lib/DHCP.c    ****   all copies and that both that the copyright notice and this
  16:Lib/DHCP.c    ****   permission notice and warranty disclaimer appear in supporting
  17:Lib/DHCP.c    ****   documentation, and that the name of the author not be used in
  18:Lib/DHCP.c    ****   advertising or publicity pertaining to distribution of the
  19:Lib/DHCP.c    ****   software without specific, written prior permission.
  20:Lib/DHCP.c    **** 
  21:Lib/DHCP.c    ****   The author disclaim all warranties with regard to this
  22:Lib/DHCP.c    ****   software, including all implied warranties of merchantability
  23:Lib/DHCP.c    ****   and fitness.  In no event shall the author be liable for any
  24:Lib/DHCP.c    ****   special, indirect or consequential damages or any damages
  25:Lib/DHCP.c    ****   whatsoever resulting from loss of use, data or profits, whether
  26:Lib/DHCP.c    ****   in an action of contract, negligence or other tortious action,
  27:Lib/DHCP.c    ****   arising out of or in connection with the use or performance of
  28:Lib/DHCP.c    ****   this software.
  29:Lib/DHCP.c    **** */
  30:Lib/DHCP.c    **** 
  31:Lib/DHCP.c    **** /** \file
  32:Lib/DHCP.c    ****  *
  33:Lib/DHCP.c    ****  *  Dynamic Host Configuration Protocol (DHCP) packet handling routines. This protocol
  34:Lib/DHCP.c    ****  *  handles the automatic IP negotiation to the host, so that the host will use the provided
  35:Lib/DHCP.c    ****  *  IP address given to it by the device.
  36:Lib/DHCP.c    ****  */
  37:Lib/DHCP.c    **** 
  38:Lib/DHCP.c    **** #include "DHCP.h"
  39:Lib/DHCP.c    **** 
  40:Lib/DHCP.c    **** /** Processes a DHCP packet inside an Ethernet frame, and writes the appropriate response
  41:Lib/DHCP.c    ****  *  to the output Ethernet frame if the host is requesting or accepting an IP address.
  42:Lib/DHCP.c    ****  *
  43:Lib/DHCP.c    ****  *  \param[in] IPHeaderInStart     Pointer to the start of the incoming packet's IP header
  44:Lib/DHCP.c    ****  *  \param[in] DHCPHeaderInStart   Pointer to the start of the incoming packet's DHCP header
  45:Lib/DHCP.c    ****  *  \param[out] DHCPHeaderOutStart  Pointer to the start of the outgoing packet's DHCP header
  46:Lib/DHCP.c    ****  *
  47:Lib/DHCP.c    ****  *  \return The number of bytes written to the out Ethernet frame if any, NO_RESPONSE otherwise
  48:Lib/DHCP.c    ****  */
  49:Lib/DHCP.c    **** int16_t DHCP_ProcessDHCPPacket(void* IPHeaderInStart,
  50:Lib/DHCP.c    ****                                void* DHCPHeaderInStart,
  51:Lib/DHCP.c    ****                                void* DHCPHeaderOutStart)
  52:Lib/DHCP.c    **** {
  17               		.loc 1 52 0
  18               		.cfi_startproc
  19               	.LVL0:
  20 0000 8F92      		push r8
  21               	.LCFI0:
  22               		.cfi_def_cfa_offset 3
  23               		.cfi_offset 8, -2
  24 0002 9F92      		push r9
  25               	.LCFI1:
  26               		.cfi_def_cfa_offset 4
  27               		.cfi_offset 9, -3
  28 0004 AF92      		push r10
  29               	.LCFI2:
  30               		.cfi_def_cfa_offset 5
  31               		.cfi_offset 10, -4
  32 0006 BF92      		push r11
  33               	.LCFI3:
  34               		.cfi_def_cfa_offset 6
  35               		.cfi_offset 11, -5
  36 0008 CF92      		push r12
  37               	.LCFI4:
  38               		.cfi_def_cfa_offset 7
  39               		.cfi_offset 12, -6
  40 000a DF92      		push r13
  41               	.LCFI5:
  42               		.cfi_def_cfa_offset 8
  43               		.cfi_offset 13, -7
  44 000c EF92      		push r14
  45               	.LCFI6:
  46               		.cfi_def_cfa_offset 9
  47               		.cfi_offset 14, -8
  48 000e FF92      		push r15
  49               	.LCFI7:
  50               		.cfi_def_cfa_offset 10
  51               		.cfi_offset 15, -9
  52 0010 0F93      		push r16
  53               	.LCFI8:
  54               		.cfi_def_cfa_offset 11
  55               		.cfi_offset 16, -10
  56 0012 1F93      		push r17
  57               	.LCFI9:
  58               		.cfi_def_cfa_offset 12
  59               		.cfi_offset 17, -11
  60 0014 CF93      		push r28
  61               	.LCFI10:
  62               		.cfi_def_cfa_offset 13
  63               		.cfi_offset 28, -12
  64 0016 DF93      		push r29
  65               	.LCFI11:
  66               		.cfi_def_cfa_offset 14
  67               		.cfi_offset 29, -13
  68               	/* prologue: function */
  69               	/* frame size = 0 */
  70               	/* stack size = 12 */
  71               	.L__stack_usage = 12
  72 0018 6C01      		movw r12,r24
  73 001a 8B01      		movw r16,r22
  74 001c EA01      		movw r28,r20
  75               	.LVL1:
  53:Lib/DHCP.c    **** 	IP_Header_t*   IPHeaderIN    = (IP_Header_t*)IPHeaderInStart;
  54:Lib/DHCP.c    **** 	DHCP_Header_t* DHCPHeaderIN  = (DHCP_Header_t*)DHCPHeaderInStart;
  55:Lib/DHCP.c    **** 	DHCP_Header_t* DHCPHeaderOUT = (DHCP_Header_t*)DHCPHeaderOutStart;
  56:Lib/DHCP.c    **** 
  57:Lib/DHCP.c    **** 	uint8_t* DHCPOptionsINStart  = (uint8_t*)(DHCPHeaderInStart  + sizeof(DHCP_Header_t));
  76               		.loc 1 57 0
  77 001e 7B01      		movw r14,r22
  78 0020 80EF      		ldi r24,-16
  79 0022 E80E      		add r14,r24
  80 0024 F11C      		adc r15,__zero_reg__
  81               	.LVL2:
  58:Lib/DHCP.c    **** 	uint8_t* DHCPOptionsOUTStart = (uint8_t*)(DHCPHeaderOutStart + sizeof(DHCP_Header_t));
  59:Lib/DHCP.c    **** 
  60:Lib/DHCP.c    **** 	DecodeDHCPHeader(DHCPHeaderInStart);
  82               		.loc 1 60 0
  83 0026 CB01      		movw r24,r22
  84 0028 0E94 0000 		call DecodeDHCPHeader
  85               	.LVL3:
  61:Lib/DHCP.c    **** 
  62:Lib/DHCP.c    **** 	/* Zero out the response DHCP packet, as much of it is legacy and left at 0 */
  63:Lib/DHCP.c    **** 	memset(DHCPHeaderOUT, 0, sizeof(DHCP_Header_t));
  86               		.loc 1 63 0
  87 002c 80EF      		ldi r24,lo8(-16)
  88 002e FE01      		movw r30,r28
  89               		0:
  90 0030 1192      		st Z+,__zero_reg__
  91 0032 8A95      		dec r24
  92 0034 01F4      		brne 0b
  64:Lib/DHCP.c    **** 
  65:Lib/DHCP.c    **** 	/* Fill out the response DHCP packet */
  66:Lib/DHCP.c    **** 	DHCPHeaderOUT->HardwareType          = DHCPHeaderIN->HardwareType;
  93               		.loc 1 66 0
  94 0036 F801      		movw r30,r16
  95 0038 8181      		ldd r24,Z+1
  96 003a 8983      		std Y+1,r24
  67:Lib/DHCP.c    **** 	DHCPHeaderOUT->Operation             = DHCP_OP_BOOTREPLY;
  97               		.loc 1 67 0
  98 003c 82E0      		ldi r24,lo8(2)
  99 003e 8883      		st Y,r24
  68:Lib/DHCP.c    **** 	DHCPHeaderOUT->HardwareAddressLength = DHCPHeaderIN->HardwareAddressLength;
 100               		.loc 1 68 0
 101 0040 8281      		ldd r24,Z+2
 102 0042 8A83      		std Y+2,r24
  69:Lib/DHCP.c    **** 	DHCPHeaderOUT->Hops                  = 0;
 103               		.loc 1 69 0
 104 0044 1B82      		std Y+3,__zero_reg__
  70:Lib/DHCP.c    **** 	DHCPHeaderOUT->TransactionID         = DHCPHeaderIN->TransactionID;
 105               		.loc 1 70 0
 106 0046 8481      		ldd r24,Z+4
 107 0048 9581      		ldd r25,Z+5
 108 004a A681      		ldd r26,Z+6
 109 004c B781      		ldd r27,Z+7
 110 004e 8C83      		std Y+4,r24
 111 0050 9D83      		std Y+5,r25
 112 0052 AE83      		std Y+6,r26
 113 0054 BF83      		std Y+7,r27
  71:Lib/DHCP.c    **** 	DHCPHeaderOUT->ElapsedSeconds        = 0;
 114               		.loc 1 71 0
 115 0056 1986      		std Y+9,__zero_reg__
 116 0058 1886      		std Y+8,__zero_reg__
  72:Lib/DHCP.c    **** 	DHCPHeaderOUT->Flags                 = DHCPHeaderIN->Flags;
 117               		.loc 1 72 0
 118 005a 8285      		ldd r24,Z+10
 119 005c 9385      		ldd r25,Z+11
 120 005e 9B87      		std Y+11,r25
 121 0060 8A87      		std Y+10,r24
  73:Lib/DHCP.c    **** 	DHCPHeaderOUT->YourIP                = ClientIPAddress;
 122               		.loc 1 73 0
 123 0062 8090 0000 		lds r8,ClientIPAddress
 124 0066 9090 0000 		lds r9,ClientIPAddress+1
 125 006a A090 0000 		lds r10,ClientIPAddress+2
 126 006e B090 0000 		lds r11,ClientIPAddress+3
 127 0072 888A      		std Y+16,r8
 128 0074 998A      		std Y+17,r9
 129 0076 AA8A      		std Y+18,r10
 130 0078 BB8A      		std Y+19,r11
  74:Lib/DHCP.c    **** 	memmove(&DHCPHeaderOUT->ClientHardwareAddress, &DHCPHeaderIN->ClientHardwareAddress, sizeof(MAC_Ad
 131               		.loc 1 74 0
 132 007a B801      		movw r22,r16
 133 007c 645E      		subi r22,-28
 134 007e 7F4F      		sbci r23,-1
 135 0080 46E0      		ldi r20,lo8(6)
 136 0082 50E0      		ldi r21,0
 137 0084 CE01      		movw r24,r28
 138 0086 4C96      		adiw r24,28
 139 0088 0E94 0000 		call memmove
 140               	.LVL4:
  75:Lib/DHCP.c    **** 	DHCPHeaderOUT->Cookie                = SwapEndian_32(DHCP_MAGIC_COOKIE);
 141               		.loc 1 75 0
 142 008c FE01      		movw r30,r28
 143 008e E451      		subi r30,20
 144 0090 FF4F      		sbci r31,-1
 145 0092 83E6      		ldi r24,lo8(99)
 146 0094 92E8      		ldi r25,lo8(-126)
 147 0096 A3E5      		ldi r26,lo8(83)
 148 0098 B3E6      		ldi r27,lo8(99)
 149 009a 8083      		st Z,r24
 150 009c 9183      		std Z+1,r25
 151 009e A283      		std Z+2,r26
 152 00a0 B383      		std Z+3,r27
  76:Lib/DHCP.c    **** 
  77:Lib/DHCP.c    **** 	/* Alter the incoming IP packet header so that the corrected IP source and destinations are used -
  78:Lib/DHCP.c    **** 	   when the response IP header is generated, it will use the corrected addresses and not the null/
  79:Lib/DHCP.c    **** 	IPHeaderIN->SourceAddress      = ClientIPAddress;
 153               		.loc 1 79 0
 154 00a2 F601      		movw r30,r12
 155 00a4 8486      		std Z+12,r8
 156 00a6 9586      		std Z+13,r9
 157 00a8 A686      		std Z+14,r10
 158 00aa B786      		std Z+15,r11
  80:Lib/DHCP.c    **** 	IPHeaderIN->DestinationAddress = ServerIPAddress;
 159               		.loc 1 80 0
 160 00ac 8091 0000 		lds r24,ServerIPAddress
 161 00b0 9091 0000 		lds r25,ServerIPAddress+1
 162 00b4 A091 0000 		lds r26,ServerIPAddress+2
 163 00b8 B091 0000 		lds r27,ServerIPAddress+3
 164 00bc 808B      		std Z+16,r24
 165 00be 918B      		std Z+17,r25
 166 00c0 A28B      		std Z+18,r26
 167 00c2 B38B      		std Z+19,r27
 168               	.L2:
  81:Lib/DHCP.c    **** 
  82:Lib/DHCP.c    **** 	/* Process the incoming DHCP packet options */
  83:Lib/DHCP.c    **** 	while (DHCPOptionsINStart[0] != DHCP_OPTION_END)
 169               		.loc 1 83 0
 170 00c4 F701      		movw r30,r14
 171 00c6 8081      		ld r24,Z
 172 00c8 8F3F      		cpi r24,lo8(-1)
 173 00ca 01F4      		brne .+2
 174 00cc 00C0      		rjmp .L12
  84:Lib/DHCP.c    **** 	{
  85:Lib/DHCP.c    **** 		/* Find the Message Type DHCP option, to determine the type of DHCP packet */
  86:Lib/DHCP.c    **** 		if (DHCPOptionsINStart[0] == DHCP_OPTION_MESSAGETYPE)
 175               		.loc 1 86 0
 176 00ce 8533      		cpi r24,lo8(53)
 177 00d0 01F4      		brne .L3
  87:Lib/DHCP.c    **** 		{
  88:Lib/DHCP.c    **** 			if ((DHCPOptionsINStart[2] == DHCP_MESSAGETYPE_DISCOVER) || (DHCPOptionsINStart[2] == DHCP_MESSA
 178               		.loc 1 88 0
 179 00d2 F701      		movw r30,r14
 180 00d4 9281      		ldd r25,Z+2
 181 00d6 9D7F      		andi r25,lo8(-3)
 182 00d8 9130      		cpi r25,lo8(1)
 183 00da 01F4      		brne .L4
 184               	.LVL5:
  89:Lib/DHCP.c    **** 			{
  90:Lib/DHCP.c    **** 				/* Fill out the response DHCP packet options for a DHCP OFFER or ACK response */
  91:Lib/DHCP.c    **** 
  92:Lib/DHCP.c    **** 				*(DHCPOptionsOUTStart++) = DHCP_OPTION_MESSAGETYPE;
 185               		.loc 1 92 0
 186 00dc FE01      		movw r30,r28
 187 00de E051      		subi r30,16
 188 00e0 FF4F      		sbci r31,-1
 189 00e2 8083      		st Z,r24
 190               	.LVL6:
  93:Lib/DHCP.c    **** 				*(DHCPOptionsOUTStart++) = 1;
 191               		.loc 1 93 0
 192 00e4 3196      		adiw r30,1
 193 00e6 9083      		st Z,r25
 194               	.LVL7:
  94:Lib/DHCP.c    **** 				*(DHCPOptionsOUTStart++) = (DHCPOptionsINStart[2] == DHCP_MESSAGETYPE_DISCOVER) ? DHCP_MESSAGET
 195               		.loc 1 94 0
 196 00e8 F701      		movw r30,r14
 197 00ea 8281      		ldd r24,Z+2
 198 00ec 8130      		cpi r24,lo8(1)
 199 00ee 01F0      		breq .L9
 200 00f0 85E0      		ldi r24,lo8(5)
 201 00f2 00C0      		rjmp .L5
 202               	.L9:
 203 00f4 82E0      		ldi r24,lo8(2)
 204               	.L5:
 205               		.loc 1 94 0 is_stmt 0 discriminator 4
 206 00f6 FE01      		movw r30,r28
 207 00f8 EE50      		subi r30,14
 208 00fa FF4F      		sbci r31,-1
 209 00fc 8083      		st Z,r24
 210               	.LVL8:
  95:Lib/DHCP.c    **** 																								: DHCP_MESSAGETYPE_ACK;
  96:Lib/DHCP.c    **** 
  97:Lib/DHCP.c    **** 				*(DHCPOptionsOUTStart++) = DHCP_OPTION_SUBNETMASK;
 211               		.loc 1 97 0 is_stmt 1 discriminator 4
 212 00fe 3196      		adiw r30,1
 213 0100 81E0      		ldi r24,lo8(1)
 214 0102 8083      		st Z,r24
 215               	.LVL9:
  98:Lib/DHCP.c    **** 				*(DHCPOptionsOUTStart++) = 4;
 216               		.loc 1 98 0 discriminator 4
 217 0104 3196      		adiw r30,1
 218 0106 94E0      		ldi r25,lo8(4)
 219 0108 9083      		st Z,r25
 220               	.LVL10:
  99:Lib/DHCP.c    **** 				*(DHCPOptionsOUTStart++) = 0xFF;
 221               		.loc 1 99 0 discriminator 4
 222 010a 3196      		adiw r30,1
 223 010c 8FEF      		ldi r24,lo8(-1)
 224 010e 8083      		st Z,r24
 225               	.LVL11:
 100:Lib/DHCP.c    **** 				*(DHCPOptionsOUTStart++) = 0xFF;
 226               		.loc 1 100 0 discriminator 4
 227 0110 3196      		adiw r30,1
 228 0112 8083      		st Z,r24
 229               	.LVL12:
 101:Lib/DHCP.c    **** 				*(DHCPOptionsOUTStart++) = 0xFF;
 230               		.loc 1 101 0 discriminator 4
 231 0114 3196      		adiw r30,1
 232 0116 8083      		st Z,r24
 233               	.LVL13:
 102:Lib/DHCP.c    **** 				*(DHCPOptionsOUTStart++) = 0x00;
 234               		.loc 1 102 0 discriminator 4
 235 0118 3196      		adiw r30,1
 236 011a 1082      		st Z,__zero_reg__
 237               	.LVL14:
 103:Lib/DHCP.c    **** 
 104:Lib/DHCP.c    **** 				*(DHCPOptionsOUTStart++) = DHCP_OPTION_DHCPSERVER;
 238               		.loc 1 104 0 discriminator 4
 239 011c 3196      		adiw r30,1
 240 011e 26E3      		ldi r18,lo8(54)
 241 0120 2083      		st Z,r18
 242               	.LVL15:
 105:Lib/DHCP.c    **** 				*(DHCPOptionsOUTStart++) = sizeof(IP_Address_t);
 243               		.loc 1 105 0 discriminator 4
 244 0122 3196      		adiw r30,1
 245 0124 9083      		st Z,r25
 106:Lib/DHCP.c    **** 				memcpy(DHCPOptionsOUTStart, &ServerIPAddress, sizeof(IP_Address_t));
 246               		.loc 1 106 0 discriminator 4
 247 0126 3196      		adiw r30,1
 248 0128 4091 0000 		lds r20,ServerIPAddress
 249 012c 5091 0000 		lds r21,ServerIPAddress+1
 250 0130 6091 0000 		lds r22,ServerIPAddress+2
 251 0134 7091 0000 		lds r23,ServerIPAddress+3
 252 0138 4083      		st Z,r20
 253 013a 5183      		std Z+1,r21
 254 013c 6283      		std Z+2,r22
 255 013e 7383      		std Z+3,r23
 256               	.LVL16:
 107:Lib/DHCP.c    **** 				DHCPOptionsOUTStart     += sizeof(IP_Address_t);
 108:Lib/DHCP.c    **** 
 109:Lib/DHCP.c    **** 				*(DHCPOptionsOUTStart++) = DHCP_OPTION_END;
 257               		.loc 1 109 0 discriminator 4
 258 0140 C150      		subi r28,1
 259 0142 DF4F      		sbci r29,-1
 260               	.LVL17:
 261 0144 8883      		st Y,r24
 110:Lib/DHCP.c    **** 
 111:Lib/DHCP.c    **** 				return (sizeof(DHCP_Header_t) + 12 + sizeof(IP_Address_t));
 262               		.loc 1 111 0 discriminator 4
 263 0146 80E0      		ldi r24,0
 264 0148 91E0      		ldi r25,lo8(1)
 265 014a 00C0      		rjmp .L6
 266               	.LVL18:
 267               	.L3:
 112:Lib/DHCP.c    **** 			}
 113:Lib/DHCP.c    **** 		}
 114:Lib/DHCP.c    **** 
 115:Lib/DHCP.c    **** 		/* Go to the next DHCP option - skip one byte if option is a padding byte, else skip the complete
 116:Lib/DHCP.c    **** 		DHCPOptionsINStart += ((DHCPOptionsINStart[0] == DHCP_OPTION_PAD) ? 1 : (DHCPOptionsINStart[1] + 
 268               		.loc 1 116 0
 269 014c 8823      		tst r24
 270 014e 01F0      		breq .L10
 271               	.L4:
 272               		.loc 1 116 0 is_stmt 0 discriminator 1
 273 0150 F701      		movw r30,r14
 274 0152 8181      		ldd r24,Z+1
 275 0154 90E0      		ldi r25,0
 276 0156 0296      		adiw r24,2
 277 0158 00C0      		rjmp .L7
 278               	.L10:
 279               		.loc 1 116 0
 280 015a 81E0      		ldi r24,lo8(1)
 281 015c 90E0      		ldi r25,0
 282               	.L7:
 283               		.loc 1 116 0 discriminator 4
 284 015e E80E      		add r14,r24
 285 0160 F91E      		adc r15,r25
 286               	.LVL19:
 287 0162 00C0      		rjmp .L2
 288               	.L12:
 117:Lib/DHCP.c    **** 	}
 118:Lib/DHCP.c    **** 
 119:Lib/DHCP.c    **** 	return NO_RESPONSE;
 289               		.loc 1 119 0 is_stmt 1
 290 0164 80E0      		ldi r24,0
 291 0166 90E0      		ldi r25,0
 292               	.LVL20:
 293               	.L6:
 294               	/* epilogue start */
 120:Lib/DHCP.c    **** }
 295               		.loc 1 120 0
 296 0168 DF91      		pop r29
 297 016a CF91      		pop r28
 298 016c 1F91      		pop r17
 299 016e 0F91      		pop r16
 300               	.LVL21:
 301 0170 FF90      		pop r15
 302 0172 EF90      		pop r14
 303               	.LVL22:
 304 0174 DF90      		pop r13
 305 0176 CF90      		pop r12
 306               	.LVL23:
 307 0178 BF90      		pop r11
 308 017a AF90      		pop r10
 309 017c 9F90      		pop r9
 310 017e 8F90      		pop r8
 311 0180 0895      		ret
 312               		.cfi_endproc
 313               	.LFE104:
 315               		.text
 316               	.Letext0:
 317               		.file 2 "/usr/lib/avr/include/stdint.h"
 318               		.file 3 "/usr/lib/avr/include/stdio.h"
 319               		.file 4 "Lib/EthernetProtocols.h"
 320               		.file 5 "Lib/IP.h"
 321               		.file 6 "Lib/DHCP.h"
 322               		.file 7 "../../../../LUFA/Drivers/USB/Class/Device/../../../../Common/Endianness.h"
 323               		.file 8 "../../../../LUFA/Drivers/USB/Class/Device/../../Core/USBTask.h"
 324               		.file 9 "../../../../LUFA/Drivers/Peripheral/AVR8/Serial_AVR8.h"
 325               		.file 10 "Lib/Ethernet.h"
 326               		.file 11 "Lib/ProtocolDecoders.h"
 327               		.file 12 "/usr/lib/avr/include/string.h"